	.text
	.def	@feat.00;
	.scl	3;
	.type	0;
	.endef
	.globl	@feat.00
.set @feat.00, 0
	.file	"odin_package"
	.def	__$startup_runtime;
	.scl	2;
	.type	32;
	.endef
	.globl	__$startup_runtime
	.p2align	4, 0x90
__$startup_runtime:
.seh_proc __$startup_runtime
	subq	$40, %rsp
	.seh_stackalloc 40
	.seh_endprologue
	jmp	.LBB0_1
.LBB0_1:
	callq	os.get_std_handle
	movq	%rax, os.stdout(%rip)
	addq	$40, %rsp
	retq
	.seh_endproc

	.def	__$equal1;
	.scl	2;
	.type	32;
	.endef
	.globl	__$equal1
	.p2align	4, 0x90
__$equal1:
	pushq	%rbx
	movb	$1, %al
	cmpq	%rdx, %rcx
	je	.LBB1_16
	movq	8(%rcx), %r8
	cmpq	8(%rdx), %r8
	jne	.LBB1_15
	testq	%r8, %r8
	je	.LBB1_7
	movq	(%rdx), %r9
	movq	(%rcx), %r10
	cmpq	%r9, %r10
	je	.LBB1_7
	xorl	%r11d, %r11d
	.p2align	4, 0x90
.LBB1_6:
	movzbl	(%r10,%r11), %ebx
	cmpb	(%r9,%r11), %bl
	jne	.LBB1_15
	incq	%r11
	cmpq	%r11, %r8
	jne	.LBB1_6
.LBB1_7:
	movq	16(%rcx), %r8
	cmpq	16(%rdx), %r8
	jne	.LBB1_15
	movq	32(%rcx), %r8
	cmpq	32(%rdx), %r8
	jne	.LBB1_15
	testq	%r8, %r8
	je	.LBB1_14
	movq	24(%rdx), %r9
	movq	24(%rcx), %r10
	cmpq	%r9, %r10
	je	.LBB1_14
	xorl	%r11d, %r11d
	.p2align	4, 0x90
.LBB1_13:
	movzbl	(%r10,%r11), %ebx
	cmpb	(%r9,%r11), %bl
	jne	.LBB1_15
	incq	%r11
	cmpq	%r11, %r8
	jne	.LBB1_13
.LBB1_14:
	movq	40(%rcx), %rcx
	cmpq	40(%rdx), %rcx
	je	.LBB1_16
.LBB1_15:
	xorl	%eax, %eax
.LBB1_16:
	popq	%rbx
	retq

	.def	__$equal2;
	.scl	2;
	.type	32;
	.endef
	.globl	__$equal2
	.p2align	4, 0x90
__$equal2:
	pushq	%rbx
	movb	$1, %al
	cmpq	%rdx, %rcx
	je	.LBB2_16
	movq	8(%rcx), %r8
	cmpq	8(%rdx), %r8
	jne	.LBB2_15
	testq	%r8, %r8
	je	.LBB2_7
	movq	(%rdx), %r9
	movq	(%rcx), %r10
	cmpq	%r9, %r10
	je	.LBB2_7
	xorl	%r11d, %r11d
	.p2align	4, 0x90
.LBB2_6:
	movzbl	(%r10,%r11), %ebx
	cmpb	(%r9,%r11), %bl
	jne	.LBB2_15
	incq	%r11
	cmpq	%r11, %r8
	jne	.LBB2_6
.LBB2_7:
	movl	16(%rcx), %r8d
	cmpl	16(%rdx), %r8d
	jne	.LBB2_15
	movl	20(%rcx), %r8d
	cmpl	20(%rdx), %r8d
	jne	.LBB2_15
	movq	32(%rcx), %r8
	cmpq	32(%rdx), %r8
	jne	.LBB2_15
	testq	%r8, %r8
	je	.LBB2_16
	movq	24(%rdx), %rdx
	movq	24(%rcx), %rcx
	cmpq	%rdx, %rcx
	je	.LBB2_16
	xorl	%r9d, %r9d
	.p2align	4, 0x90
.LBB2_14:
	movzbl	(%rcx,%r9), %r10d
	cmpb	(%rdx,%r9), %r10b
	jne	.LBB2_15
	incq	%r9
	cmpq	%r9, %r8
	jne	.LBB2_14
	jmp	.LBB2_16
.LBB2_15:
	xorl	%eax, %eax
.LBB2_16:
	popq	%rbx
	retq

	.def	os.get_std_handle;
	.scl	3;
	.type	32;
	.endef
	.p2align	4, 0x90
os.get_std_handle:
	movl	$-11, %ecx
	jmp	GetStdHandle

	.def	__$cleanup_runtime;
	.scl	2;
	.type	32;
	.endef
	.globl	__$cleanup_runtime
	.p2align	4, 0x90
__$cleanup_runtime:
.seh_proc __$cleanup_runtime
	subq	$40, %rsp
	.seh_stackalloc 40
	.seh_endprologue
	jmp	.LBB4_1
.LBB4_1:
	callq	"runtime._destroy_temp_allocator_fini-9834"
	nop
	addq	$40, %rsp
	retq
	.seh_endproc

	.def	"runtime._destroy_temp_allocator_fini-9834";
	.scl	3;
	.type	32;
	.endef
	.p2align	4, 0x90
"runtime._destroy_temp_allocator_fini-9834":
.seh_proc "runtime._destroy_temp_allocator_fini-9834"
	pushq	%rsi
	.seh_pushreg %rsi
	pushq	%rdi
	.seh_pushreg %rdi
	pushq	%rbx
	.seh_pushreg %rbx
	subq	$112, %rsp
	.seh_stackalloc 112
	movaps	%xmm6, 96(%rsp)
	.seh_savexmm %xmm6, 96
	.seh_endprologue
	movq	%rcx, %rsi
	movl	_tls_index(%rip), %eax
	movq	%gs:88, %rcx
	movq	(%rcx,%rax,8), %rax
	movq	runtime.global_default_temp_allocator_data@SECREL32+16(%rax), %rax
	testq	%rax, %rax
	je	.LBB5_5
	movl	_tls_index(%rip), %ecx
	movq	%gs:88, %rdx
	movq	(%rdx,%rcx,8), %rcx
	movq	runtime.global_default_temp_allocator_data@SECREL32+32(%rcx), %rcx
	xorps	%xmm6, %xmm6
	leaq	80(%rsp), %rdi
	leaq	.Lggv$3a(%rip), %rbx
	jmp	.LBB5_2
	.p2align	4, 0x90
.LBB5_4:
	movq	%rdx, %rax
	testq	%rdx, %rdx
	je	.LBB5_5
.LBB5_2:
	movq	(%rax), %rdx
	movl	_tls_index(%rip), %r8d
	movq	%gs:88, %r9
	movq	(%r9,%r8,8), %r8
	movq	%rdx, runtime.global_default_temp_allocator_data@SECREL32+16(%r8)
	subq	40(%rax), %rcx
	movq	%rcx, runtime.global_default_temp_allocator_data@SECREL32+32(%r8)
	movq	8(%rax), %r10
	testq	%r10, %r10
	je	.LBB5_4
	movq	16(%rax), %rcx
	movaps	%xmm6, 80(%rsp)
	movq	%rsi, 64(%rsp)
	movq	%rdi, 56(%rsp)
	movq	%rbx, 48(%rsp)
	movq	%rax, 32(%rsp)
	movq	$0, 40(%rsp)
	movb	$1, %dl
	xorl	%r8d, %r8d
	xorl	%r9d, %r9d
	callq	*%r10
	movl	_tls_index(%rip), %eax
	movq	%gs:88, %rcx
	movq	(%rcx,%rax,8), %rax
	movq	runtime.global_default_temp_allocator_data@SECREL32+16(%rax), %rdx
	movq	runtime.global_default_temp_allocator_data@SECREL32+32(%rax), %rcx
	jmp	.LBB5_4
.LBB5_5:
	movl	_tls_index(%rip), %eax
	movq	%gs:88, %rcx
	movq	(%rcx,%rax,8), %rax
	xorps	%xmm0, %xmm0
	movaps	%xmm0, runtime.global_default_temp_allocator_data@SECREL32+32(%rax)
	movaps	%xmm0, runtime.global_default_temp_allocator_data@SECREL32+16(%rax)
	movaps	%xmm0, runtime.global_default_temp_allocator_data@SECREL32(%rax)
	movq	$0, runtime.global_default_temp_allocator_data@SECREL32+48(%rax)
	movaps	96(%rsp), %xmm6
	addq	$112, %rsp
	popq	%rbx
	popq	%rdi
	popq	%rsi
	retq
	.seh_endproc

	.def	runtime.bounds_trap;
	.scl	3;
	.type	32;
	.endef
	.p2align	4, 0x90
runtime.bounds_trap:
.seh_proc runtime.bounds_trap
	subq	$40, %rsp
	.seh_stackalloc 40
	.seh_endprologue
	callq	"runtime.windows_trap_array_bounds-660"
	int3
	.seh_endproc

	.def	runtime.udivmod128;
	.scl	3;
	.type	32;
	.endef
	.p2align	4, 0x90
runtime.udivmod128:
	pushq	%rsi
	pushq	%rdi
	pushq	%rbx
	movq	(%rcx), %r9
	movq	8(%rcx), %rax
	movq	(%rdx), %r11
	movq	8(%rdx), %r10
	testq	%rax, %rax
	je	.LBB7_7
	testq	%r11, %r11
	je	.LBB7_10
	testq	%r10, %r10
	je	.LBB7_16
	bsrq	%r10, %r11
	xorl	$63, %r11d
	bsrq	%rax, %r10
	xorl	$63, %r10d
	subl	%r10d, %r11d
	cmpl	$64, %r11d
	jb	.LBB7_24
	pxor	%xmm0, %xmm0
.LBB7_5:
	testq	%r8, %r8
	je	.LBB7_44
	movdqa	(%rcx), %xmm1
	movdqa	%xmm1, (%r8)
	jmp	.LBB7_44
.LBB7_7:
	testq	%r10, %r10
	je	.LBB7_21
	pxor	%xmm0, %xmm0
	testq	%r8, %r8
	je	.LBB7_44
	movq	%r9, (%r8)
	movq	$0, 8(%r8)
	jmp	.LBB7_44
.LBB7_10:
	pxor	%xmm0, %xmm0
	testq	%r10, %r10
	je	.LBB7_44
	testq	%r9, %r9
	je	.LBB7_28
	leaq	-1(%r10), %r11
	testq	%r11, %r10
	jne	.LBB7_31
	testq	%r8, %r8
	je	.LBB7_15
	andq	%rax, %r11
	movq	%r9, (%r8)
	movq	%r11, 8(%r8)
.LBB7_15:
	rep		bsfq	%r10, %rcx
	shrq	%cl, %rax
	movq	%rax, %xmm0
	jmp	.LBB7_44
.LBB7_16:
	leaq	-1(%r11), %r10
	testq	%r10, %r11
	jne	.LBB7_26
	testq	%r8, %r8
	je	.LBB7_19
	andq	%r9, %r10
	movq	%r10, (%r8)
	movq	$0, 8(%r8)
.LBB7_19:
	cmpq	$1, %r11
	jne	.LBB7_33
	movdqa	(%rcx), %xmm0
	jmp	.LBB7_44
.LBB7_21:
	movq	%r9, %rax
	xorl	%edx, %edx
	divq	%r11
	testq	%r8, %r8
	je	.LBB7_23
	movq	%rdx, (%r8)
	movq	$0, 8(%r8)
	jmp	.LBB7_23
.LBB7_24:
	leal	1(%r11), %r10d
	cmpl	$64, %r10d
	je	.LBB7_27
	movq	%rax, %rsi
	movl	%r10d, %ecx
	shrq	%cl, %rsi
	xorb	$63, %r11b
	movl	%r11d, %ecx
	shlq	%cl, %rax
	movq	%r9, %rdi
	movl	%r10d, %ecx
	shrq	%cl, %rdi
	movl	%r11d, %ecx
	shlq	%cl, %r9
	orq	%rdi, %rax
	movq	%r9, %xmm0
	pslldq	$8, %xmm0
	jmp	.LBB7_38
.LBB7_26:
	bsrq	%r11, %r11
	xorl	$63, %r11d
	bsrq	%rax, %rcx
	xorl	$63, %ecx
	subl	%ecx, %r11d
	leal	65(%r11), %r10d
	cmpl	$64, %r10d
	jne	.LBB7_34
.LBB7_27:
	movq	%r9, %xmm0
	pslldq	$8, %xmm0
	movl	$64, %r10d
	xorl	%esi, %esi
	jmp	.LBB7_38
.LBB7_28:
	xorl	%edx, %edx
	divq	%r10
	testq	%r8, %r8
	je	.LBB7_23
	movq	%rdx, 8(%r8)
	movq	$0, (%r8)
.LBB7_23:
	movq	%rax, %xmm0
	jmp	.LBB7_44
.LBB7_31:
	bsrq	%r10, %r11
	xorl	$63, %r11d
	bsrq	%rax, %r10
	xorl	$63, %r10d
	subl	%r10d, %r11d
	cmpl	$63, %r11d
	jae	.LBB7_5
	leal	1(%r11), %r10d
	xorb	$63, %r11b
	jmp	.LBB7_36
.LBB7_33:
	rep		bsfq	%r11, %rdx
	movq	%rax, %r8
	movl	%edx, %ecx
	shrq	%cl, %r8
	negb	%cl
	shlq	%cl, %rax
	testq	%rdx, %rdx
	cmoveq	%rdx, %rax
	movl	%edx, %ecx
	shrq	%cl, %r9
	orq	%rax, %r9
	movq	%r9, %xmm0
	movq	%r8, %xmm1
	jmp	.LBB7_43
.LBB7_34:
	jae	.LBB7_37
	notb	%r11b
.LBB7_36:
	movq	%r9, %rsi
	movl	%r11d, %ecx
	shlq	%cl, %rsi
	movq	%rsi, %xmm0
	pslldq	$8, %xmm0
	movq	%rax, %rsi
	movl	%r10d, %ecx
	shrq	%cl, %rsi
	movl	%r11d, %ecx
	shlq	%cl, %rax
	movl	%r10d, %ecx
	shrq	%cl, %r9
	orq	%r9, %rax
	jmp	.LBB7_38
.LBB7_37:
	movb	$63, %cl
	subb	%r11b, %cl
	movq	%r9, %rdi
	shlq	%cl, %rdi
	movq	%rax, %rbx
	shlq	%cl, %rbx
	incl	%r11d
	movl	%r11d, %ecx
	shrq	%cl, %r9
	shrq	%cl, %rax
	xorl	%esi, %esi
	cmpl	$64, %r11d
	cmovaeq	%rsi, %r9
	cmovaeq	%rsi, %rax
	orq	%rbx, %r9
	movq	%r9, %xmm1
	movq	%rdi, %xmm0
	punpcklqdq	%xmm1, %xmm0
.LBB7_38:
	movq	(%rdx), %rcx
	movq	8(%rdx), %rdx
	xorl	%r9d, %r9d
	.p2align	4, 0x90
.LBB7_39:
	shldq	$1, %rax, %rsi
	pextrq	$1, %xmm0, %r11
	shldq	$1, %r11, %rax
	movq	%xmm0, %rdi
	shldq	$1, %rdi, %r11
	addq	%rdi, %rdi
	movl	%r9d, %r9d
	orq	%rdi, %r9
	movq	%r11, %xmm1
	movq	%r9, %xmm0
	punpcklqdq	%xmm1, %xmm0
	movq	%rsi, %r11
	notq	%r11
	movq	%rax, %r9
	notq	%r9
	addq	%rcx, %r9
	adcq	%rdx, %r11
	movq	%r11, %r9
	shrq	$63, %r9
	sarq	$63, %r11
	movq	%r11, %rdi
	andq	%rdx, %rdi
	andq	%rcx, %r11
	subq	%r11, %rax
	sbbq	%rdi, %rsi
	decl	%r10d
	jne	.LBB7_39
	movq	%xmm0, %rdx
	pextrq	$1, %xmm0, %rcx
	shldq	$1, %rdx, %rcx
	leaq	(%r9,%rdx,2), %rdx
	testq	%r8, %r8
	je	.LBB7_42
	movq	%rax, (%r8)
	movq	%rsi, 8(%r8)
.LBB7_42:
	movq	%rdx, %xmm0
	movq	%rcx, %xmm1
.LBB7_43:
	punpcklqdq	%xmm1, %xmm0
.LBB7_44:
	popq	%rbx
	popq	%rdi
	popq	%rsi
	retq

	.def	runtime.stderr_write;
	.scl	3;
	.type	32;
	.endef
	.p2align	4, 0x90
runtime.stderr_write:
.seh_proc runtime.stderr_write
	pushq	%r15
	.seh_pushreg %r15
	pushq	%r14
	.seh_pushreg %r14
	pushq	%r12
	.seh_pushreg %r12
	pushq	%rsi
	.seh_pushreg %rsi
	pushq	%rdi
	.seh_pushreg %rdi
	pushq	%rbp
	.seh_pushreg %rbp
	pushq	%rbx
	.seh_pushreg %rbx
	subq	$48, %rsp
	.seh_stackalloc 48
	.seh_endprologue
	movq	%rdx, %rsi
	cmpq	$0, 8(%rcx)
	je	.LBB8_1
	movq	%rcx, %rdi
	movl	$-12, %ecx
	callq	GetStdHandle
	movq	%rax, %rbx
	xorl	%r15d, %r15d
	movq	%rax, %rcx
	movl	$1, %edx
	xorl	%r8d, %r8d
	callq	SetHandleInformation
	movl	$0, 44(%rsp)
	movq	8(%rdi), %r12
	testq	%r12, %r12
	jle	.LBB8_8
	xorl	%r15d, %r15d
	movl	$1073741824, %ebp
	leaq	44(%rsp), %r14
	.p2align	4, 0x90
.LBB8_5:
	movl	%r12d, %r8d
	subl	%r15d, %r8d
	cmpl	$1073741824, %r8d
	cmovgel	%ebp, %r8d
	movq	(%rdi), %rdx
	addq	%r15, %rdx
	movq	$0, 32(%rsp)
	movq	%rbx, %rcx
	movq	%r14, %r9
	callq	WriteFile
	movl	44(%rsp), %ecx
	testq	%rcx, %rcx
	je	.LBB8_7
	testl	%eax, %eax
	je	.LBB8_7
	addq	%rcx, %r15
	cmpq	%r12, %r15
	jl	.LBB8_5
	jmp	.LBB8_8
.LBB8_1:
	xorl	%r15d, %r15d
	jmp	.LBB8_8
.LBB8_7:
	callq	GetLastError
.LBB8_8:
	movq	%r15, (%rsi)
	addq	$48, %rsp
	popq	%rbx
	popq	%rbp
	popq	%rdi
	popq	%rsi
	popq	%r12
	popq	%r14
	popq	%r15
	retq
	.seh_endproc

	.def	main.main;
	.scl	3;
	.type	32;
	.endef
	.p2align	4, 0x90
main.main:
.seh_proc main.main
	pushq	%r15
	.seh_pushreg %r15
	pushq	%r14
	.seh_pushreg %r14
	pushq	%r13
	.seh_pushreg %r13
	pushq	%r12
	.seh_pushreg %r12
	pushq	%rsi
	.seh_pushreg %rsi
	pushq	%rdi
	.seh_pushreg %rdi
	pushq	%rbp
	.seh_pushreg %rbp
	pushq	%rbx
	.seh_pushreg %rbx
	subq	$1544, %rsp
	.seh_stackalloc 1544
	movaps	%xmm6, 1520(%rsp)
	.seh_savexmm %xmm6, 1520
	.seh_endprologue
	movq	%rcx, %rsi
	cmpq	$2, runtime.args__.1(%rip)
	jl	.LBB9_1
	movq	runtime.args__.0(%rip), %rax
	movq	8(%rax), %rax
	jmp	.LBB9_3
.LBB9_1:
	leaq	.Lcsbs$5(%rip), %rax
.LBB9_3:
	movq	%rax, 400(%rsp)
	xorps	%xmm6, %xmm6
	movaps	%xmm6, 384(%rsp)
	movaps	%xmm6, 112(%rsp)
	leaq	400(%rsp), %rax
	movq	%rax, 112(%rsp)
	movabsq	$5044031582654955523, %rax
	movq	%rax, 120(%rsp)
	leaq	112(%rsp), %rax
	movq	%rax, 384(%rsp)
	movq	$1, 392(%rsp)
	movq	os.stdout(%rip), %rbx
	xorl	%r12d, %r12d
	leaq	496(%rsp), %rdi
	movl	$1024, %r8d
	movq	%rdi, %rcx
	xorl	%edx, %edx
	callq	memset
	movups	%xmm6, 480(%rsp)
	leaq	"os._file_stream_proc-827"(%rip), %rax
	movq	%rax, 456(%rsp)
	movq	%rbx, 464(%rsp)
	movq	$0, 472(%rsp)
	movups	%xmm6, 440(%rsp)
	movq	%rdi, 424(%rsp)
	movq	$1024, 432(%rsp)
	movq	$0, 368(%rsp)
	movq	$1, 88(%rsp)
	leaq	312(%rsp), %r15
	leaq	bufio._writer_proc(%rip), %rbp
	leaq	424(%rsp), %rbx
	leaq	.Lcsbs$d8(%rip), %rdi
	leaq	128(%rsp), %r13
	jmp	.LBB9_4
	.p2align	4, 0x90
.LBB9_16:
	movq	%rdx, %r12
.LBB9_22:
	cmpq	$16, %r12
	jae	.LBB9_23
.LBB9_4:
	movaps	%xmm6, 272(%rsp)
	movaps	%xmm6, 256(%rsp)
	movq	$0, 288(%rsp)
	movq	%rbp, 296(%rsp)
	movq	%rbx, 304(%rsp)
	movups	%xmm6, 32(%r15)
	movups	%xmm6, 16(%r15)
	movups	%xmm6, (%r15)
	movq	$0, 48(%r15)
	movq	%r12, %r14
	.p2align	4, 0x90
.LBB9_5:
	movzbl	(%r14,%rdi), %eax
	cmpl	$37, %eax
	je	.LBB9_10
	cmpl	$123, %eax
	je	.LBB9_10
	cmpl	$125, %eax
	je	.LBB9_10
	incq	%r14
	cmpq	$16, %r14
	jne	.LBB9_5
	movl	$16, %r14d
.LBB9_10:
	movq	%r14, %rax
	subq	%r12, %rax
	jbe	.LBB9_12
	addq	%rdi, %r12
	movq	%r12, 408(%rsp)
	movq	%rax, 416(%rsp)
	movq	$0, 128(%rsp)
	movq	%rsi, 48(%rsp)
	movq	%r13, 40(%rsp)
	movl	$4, %edx
	movq	%rbx, %rcx
	leaq	408(%rsp), %r8
	callq	bufio._writer_proc
	movq	128(%rsp), %rax
	addq	%rax, 368(%rsp)
.LBB9_12:
	cmpq	$15, %r14
	ja	.LBB9_23
	movzbl	(%r14,%rdi), %eax
	leaq	1(%r14), %rdx
	cmpl	$37, %eax
	je	.LBB9_58
	cmpl	$123, %eax
	je	.LBB9_35
	cmpl	$125, %eax
	jne	.LBB9_16
	movl	$16, %r12d
	cmpq	$15, %r14
	je	.LBB9_19
	cmpb	$125, 1(%r14,%rdi)
	leaq	2(%r14), %rax
	cmoveq	%rax, %rdx
	movq	%rdx, %r12
.LBB9_19:
	movb	$125, 96(%rsp)
	leaq	96(%rsp), %rax
	movq	%rax, 128(%rsp)
	movq	$1, 136(%rsp)
	movq	296(%rsp), %rax
	testq	%rax, %rax
	je	.LBB9_22
	movq	304(%rsp), %rcx
	movq	$0, 72(%rsp)
	movq	%rsi, 48(%rsp)
	leaq	72(%rsp), %rdx
	movq	%rdx, 40(%rsp)
	movq	$0, 32(%rsp)
	movl	$4, %edx
	movq	%r13, %r8
	xorl	%r9d, %r9d
	callq	*%rax
	movq	72(%rsp), %rax
	jmp	.LBB9_21
	.p2align	4, 0x90
.LBB9_35:
	movzbl	(%rdx,%rdi), %eax
	cmpl	$58, %eax
	je	.LBB9_36
	cmpl	$123, %eax
	je	.LBB9_54
	cmpl	$125, %eax
	jne	.LBB9_47
.LBB9_36:
	movq	%rdx, %rbp
.LBB9_37:
	movq	88(%rsp), %rax
	xorl	%r13d, %r13d
	.p2align	4, 0x90
.LBB9_38:
	btq	%r13, %rax
	jb	.LBB9_141
	movq	%rax, %rdx
	movl	%r13d, %ecx
	shrq	%cl, %rdx
	testb	$2, %dl
	jne	.LBB9_140
	movq	%rax, %rdx
	movl	%r13d, %ecx
	shrq	%cl, %rdx
	testb	$4, %dl
	jne	.LBB9_139
	movq	%rax, %rdx
	movl	%r13d, %ecx
	shrq	%cl, %rdx
	testb	$8, %dl
	jne	.LBB9_138
	cmpq	$60, %r13
	je	.LBB9_132
	movq	%rax, %rdx
	movl	%r13d, %ecx
	shrq	%cl, %rdx
	leaq	5(%r13), %rcx
	movq	%rcx, %r13
	testb	$16, %dl
	je	.LBB9_38
	decq	%rcx
	xorl	%r14d, %r14d
	movq	%rcx, %r13
	jmp	.LBB9_142
	.p2align	4, 0x90
.LBB9_58:
	cmpq	$15, %r14
	je	.LBB9_61
	cmpb	$37, (%rdx,%rdi)
	jne	.LBB9_61
	movb	$37, 96(%rsp)
	jmp	.LBB9_55
.LBB9_61:
	movq	%rsi, 32(%rsp)
	leaq	256(%rsp), %rcx
	leaq	88(%rsp), %r8
	leaq	384(%rsp), %r9
	callq	"fmt.wprintf.parse_options-0"
	movq	%rax, %r12
	cmpq	$15, %rax
	jg	.LBB9_79
	ja	.LBB9_209
	cmpb	$91, (%r12,%rdi)
	jne	.LBB9_79
	cmpq	$13, %r12
	ja	.LBB9_76
	movl	$16, %ecx
	subq	%r12, %rcx
	leaq	2(%r12), %r14
	movq	$-1, %rax
	.p2align	4, 0x90
.LBB9_66:
	cmpb	$93, -1(%r14,%rdi)
	je	.LBB9_67
	incq	%r14
	decq	%rax
	cmpq	$17, %r14
	jne	.LBB9_66
.LBB9_76:
	incq	%r12
.LBB9_79:
	movq	88(%rsp), %rax
	xorl	%r9d, %r9d
	.p2align	4, 0x90
.LBB9_80:
	btq	%r9, %rax
	jb	.LBB9_96
	movq	%rax, %rdx
	movl	%r9d, %ecx
	shrq	%cl, %rdx
	testb	$2, %dl
	jne	.LBB9_95
	movq	%rax, %rdx
	movl	%r9d, %ecx
	shrq	%cl, %rdx
	testb	$4, %dl
	jne	.LBB9_94
	movq	%rax, %rdx
	movl	%r9d, %ecx
	shrq	%cl, %rdx
	testb	$8, %dl
	jne	.LBB9_93
	cmpq	$60, %r9
	je	.LBB9_87
	movq	%rax, %rdx
	movl	%r9d, %ecx
	shrq	%cl, %rdx
	leaq	5(%r9), %rcx
	movq	%rcx, %r9
	testb	$16, %dl
	je	.LBB9_80
	decq	%rcx
	xorl	%eax, %eax
	movq	%rcx, %r9
	jmp	.LBB9_97
.LBB9_54:
	movb	$123, 96(%rsp)
.LBB9_55:
	leaq	96(%rsp), %rax
	movq	%rax, 128(%rsp)
	movq	$1, 136(%rsp)
	movq	296(%rsp), %rax
	testq	%rax, %rax
	je	.LBB9_57
	movq	304(%rsp), %rcx
	movq	$0, 72(%rsp)
	movq	%rsi, 48(%rsp)
	leaq	72(%rsp), %rdx
	movq	%rdx, 40(%rsp)
	movq	$0, 32(%rsp)
	movl	$4, %edx
	movq	%r13, %r8
	xorl	%r9d, %r9d
	callq	*%rax
	movq	72(%rsp), %rax
	addq	%rax, 368(%rsp)
.LBB9_57:
	addq	$2, %r14
	movq	%r14, %r12
	jmp	.LBB9_22
.LBB9_47:
	xorl	%eax, %eax
	movq	%rdx, %rbp
	.p2align	4, 0x90
.LBB9_48:
	movzbl	(%rbp,%rdi), %ecx
	leal	-58(%rcx), %r8d
	cmpb	$-10, %r8b
	jb	.LBB9_51
	incq	%rbp
	leaq	(%rax,%rax,4), %rax
	leaq	(%rcx,%rax,2), %rax
	addq	$-48, %rax
	cmpq	$16, %rbp
	jne	.LBB9_48
	movl	$16, %ebp
.LBB9_51:
	cmpq	%rdx, %rbp
	jle	.LBB9_37
	testq	%rax, %rax
	je	.LBB9_53
	movq	296(%rsp), %rax
	testq	%rax, %rax
	je	.LBB9_135
	movq	304(%rsp), %rcx
	movq	$0, 128(%rsp)
	movq	%rsi, 48(%rsp)
	movq	%r13, 40(%rsp)
	movq	$0, 32(%rsp)
	movl	$4, %edx
	leaq	.Lggv$265(%rip), %r8
	jmp	.LBB9_134
.LBB9_95:
	incq	%r9
	jmp	.LBB9_96
.LBB9_94:
	addq	$2, %r9
	jmp	.LBB9_96
.LBB9_93:
	addq	$3, %r9
.LBB9_96:
	xorl	%eax, %eax
.LBB9_97:
	cmpq	$16, %r12
	jge	.LBB9_98
	jae	.LBB9_210
	movzbl	(%r12,%rdi), %ecx
	cmpq	$32, %rcx
	jne	.LBB9_107
	movq	296(%rsp), %rax
	testq	%rax, %rax
	je	.LBB9_22
	movq	304(%rsp), %rcx
	movq	$0, 128(%rsp)
	movq	%rsi, 48(%rsp)
	movq	%r13, 40(%rsp)
	movq	$0, 32(%rsp)
	movl	$4, %edx
	leaq	.Lggv$1a0(%rip), %r8
	jmp	.LBB9_106
.LBB9_107:
	leaq	"runtime.string_decode_rune-.accept_sizes-28525"(%rip), %rdx
	movzbl	(%rcx,%rdx), %r10d
	leaq	-245(%rcx), %rdx
	cmpq	$-52, %rdx
	ja	.LBB9_109
	andl	$1, %r10d
	movl	%r10d, %r8d
	negl	%r8d
	decl	%r10d
	andl	%ecx, %r10d
	andl	$65533, %r8d
	orl	%r10d, %r8d
	movl	$1, %edx
	jmp	.LBB9_128
.LBB9_109:
	movl	$16, %r11d
	subq	%r12, %r11
	movl	%r10d, %r14d
	andl	$7, %r14d
	movl	$1, %edx
	movl	$65533, %r8d
	cmpq	%r14, %r11
	jae	.LBB9_110
.LBB9_128:
	addq	%rdx, %r12
	testb	%al, %al
	je	.LBB9_130
	leaq	bufio._writer_proc(%rip), %rbp
	jmp	.LBB9_22
.LBB9_130:
	movq	$-2, %rax
	movl	%r9d, %ecx
	rolq	%cl, %rax
	cmpq	$64, %r9
	movq	$-1, %rcx
	cmovaeq	%rcx, %rax
	andq	%rax, 88(%rsp)
	testq	%r9, %r9
	leaq	bufio._writer_proc(%rip), %rbp
	jne	.LBB9_211
	shlq	$4, %r9
	leaq	(%rsp,%r9), %rdx
	addq	$112, %rdx
	leaq	256(%rsp), %rcx
	movq	%rsi, %r9
	callq	fmt.fmt_arg
	jmp	.LBB9_22
.LBB9_87:
	movq	296(%rsp), %rax
	testq	%rax, %rax
	je	.LBB9_89
	movq	304(%rsp), %rcx
	movq	$0, 128(%rsp)
	movq	%rsi, 48(%rsp)
	movq	%r13, 40(%rsp)
	movq	$0, 32(%rsp)
	movl	$4, %edx
	leaq	.Lggv$264(%rip), %r8
	xorl	%r9d, %r9d
	callq	*%rax
	movq	128(%rsp), %rax
	addq	%rax, 368(%rsp)
.LBB9_89:
	movb	$1, %al
	xorl	%r9d, %r9d
	jmp	.LBB9_97
.LBB9_140:
	incq	%r13
	jmp	.LBB9_141
.LBB9_139:
	addq	$2, %r13
	jmp	.LBB9_141
.LBB9_138:
	addq	$3, %r13
	jmp	.LBB9_141
.LBB9_132:
	movq	296(%rsp), %rax
	testq	%rax, %rax
	je	.LBB9_135
	movq	304(%rsp), %rcx
	movq	$0, 128(%rsp)
	movq	%rsi, 48(%rsp)
	leaq	128(%rsp), %rdx
	movq	%rdx, 40(%rsp)
	movq	$0, 32(%rsp)
	movl	$4, %edx
	leaq	.Lggv$264(%rip), %r8
.LBB9_134:
	xorl	%r9d, %r9d
	callq	*%rax
	movq	128(%rsp), %rax
	addq	%rax, 368(%rsp)
.LBB9_135:
	movb	$1, %r14b
	xorl	%r13d, %r13d
	jmp	.LBB9_142
.LBB9_110:
	cmpq	$15, %r12
	leaq	utf8.accept_ranges(%rip), %r14
	je	.LBB9_111
	shrl	$4, %r10d
	movzbl	1(%r12,%rdi), %ebp
	cmpb	(%r14,%r10,2), %bpl
	jb	.LBB9_128
	cmpb	%bpl, 1(%r14,%r10,2)
	jb	.LBB9_128
	leaq	-194(%rcx), %r14
	movzbl	%bpl, %r10d
	cmpq	$29, %r14
	ja	.LBB9_117
	andl	$31, %ecx
	shll	$6, %ecx
	andl	$63, %r10d
	orl	%ecx, %r10d
	movl	$2, %edx
	movl	%r10d, %r8d
	jmp	.LBB9_128
.LBB9_67:
	leaq	-15(%r12), %r9
	movl	$1, %r8d
	xorl	%edx, %edx
	.p2align	4, 0x90
.LBB9_68:
	leaq	(%r12,%r8), %r10
	movzbl	(%rdi,%r10), %r10d
	leal	-58(%r10), %r11d
	cmpb	$-10, %r11b
	jb	.LBB9_71
	leaq	(%rdx,%rdx,4), %rdx
	leaq	(%r10,%rdx,2), %rdx
	addq	$-48, %rdx
	leaq	(%r9,%r8), %r10
	incq	%r10
	incq	%r8
	cmpq	$1, %r10
	jne	.LBB9_68
	movq	%rcx, %r8
.LBB9_71:
	cmpq	$2, %r8
	setl	%r9b
	addq	%r8, %rax
	setne	%cl
	xorl	%eax, %eax
	orb	%r9b, %cl
	cmovneq	%rax, %rdx
	jne	.LBB9_77
	testq	%rdx, %rdx
	js	.LBB9_77
	jle	.LBB9_74
.LBB9_77:
	testb	%cl, %cl
	je	.LBB9_90
	movq	%r14, %r12
	jmp	.LBB9_79
.LBB9_53:
	xorl	%r13d, %r13d
.LBB9_141:
	xorl	%r14d, %r14d
.LBB9_142:
	cmpq	$15, %rbp
	jg	.LBB9_175
	ja	.LBB9_212
	movzbl	(%rbp,%rdi), %eax
	movl	$118, %r8d
	cmpb	$58, %al
	jne	.LBB9_173
	incq	%rbp
	movq	%rsi, 32(%rsp)
	leaq	256(%rsp), %rcx
	movq	%rbp, %rdx
	leaq	88(%rsp), %r8
	leaq	384(%rsp), %r9
	callq	"fmt.wprintf.parse_options-0"
	cmpq	$16, %rax
	jge	.LBB9_146
	movq	%rax, %r12
	jae	.LBB9_213
	movzbl	(%r12,%rdi), %eax
	cmpq	$125, %rax
	leaq	bufio._writer_proc(%rip), %rbp
	jne	.LBB9_153
	movq	296(%rsp), %rax
	testq	%rax, %rax
	leaq	128(%rsp), %r13
	je	.LBB9_152
	movq	304(%rsp), %rcx
	movq	$0, 128(%rsp)
	movq	%rsi, 48(%rsp)
	movq	%r13, 40(%rsp)
	movq	$0, 32(%rsp)
	movl	$4, %edx
	leaq	.Lggv$1a0(%rip), %r8
	xorl	%r9d, %r9d
	callq	*%rax
	movq	128(%rsp), %rax
	addq	%rax, 368(%rsp)
.LBB9_152:
	incq	%r12
	jmp	.LBB9_22
.LBB9_153:
	leaq	"runtime.string_decode_rune-.accept_sizes-28525"(%rip), %rcx
	movzbl	(%rax,%rcx), %ecx
	leaq	-245(%rax), %rdx
	cmpq	$-52, %rdx
	ja	.LBB9_155
	andl	$1, %ecx
	movl	%ecx, %r8d
	negl	%r8d
	decl	%ecx
	andl	%eax, %ecx
	andl	$65533, %r8d
	orl	%ecx, %r8d
	movl	$1, %ebp
	jmp	.LBB9_171
.LBB9_155:
	movl	$16, %edx
	subq	%r12, %rdx
	movl	%ecx, %r9d
	andl	$7, %r9d
	movl	$1, %ebp
	movl	$65533, %r8d
	cmpq	%r9, %rdx
	jae	.LBB9_156
.LBB9_171:
	addq	%r12, %rbp
	cmpq	$15, %rbp
	ja	.LBB9_175
	movzbl	(%rbp,%rdi), %eax
.LBB9_173:
	movzbl	%al, %eax
	leaq	"runtime.string_decode_rune-.accept_sizes-28525"(%rip), %rcx
	movzbl	(%rax,%rcx), %r9d
	leaq	-245(%rax), %rcx
	cmpq	$-52, %rcx
	ja	.LBB9_177
	andl	$1, %r9d
	movl	%r9d, %ecx
	negl	%ecx
	decl	%r9d
	andl	%eax, %r9d
	andl	$65533, %ecx
	orl	%r9d, %ecx
	movl	$1, %r12d
.LBB9_190:
	addq	%rbp, %r12
	cmpl	$125, %ecx
	jne	.LBB9_194
	testb	%r14b, %r14b
	leaq	bufio._writer_proc(%rip), %rbp
	je	.LBB9_196
	leaq	128(%rsp), %r13
	jmp	.LBB9_22
.LBB9_177:
	movl	$16, %edx
	subq	%rbp, %rdx
	movl	%r9d, %ecx
	andl	$7, %ecx
	cmpq	%rcx, %rdx
	jae	.LBB9_178
.LBB9_193:
	incq	%rbp
	movq	%rbp, %r12
.LBB9_194:
	leaq	bufio._writer_proc(%rip), %rbp
	movq	296(%rsp), %rax
	testq	%rax, %rax
	leaq	128(%rsp), %r13
	je	.LBB9_22
	movq	304(%rsp), %rcx
	movq	$0, 128(%rsp)
	movq	%rsi, 48(%rsp)
	movq	%r13, 40(%rsp)
	movq	$0, 32(%rsp)
	movl	$4, %edx
	leaq	.Lggv$1a4(%rip), %r8
.LBB9_106:
	xorl	%r9d, %r9d
	callq	*%rax
	movq	128(%rsp), %rax
.LBB9_21:
	addq	%rax, 368(%rsp)
	jmp	.LBB9_22
.LBB9_178:
	cmpq	$15, %rbp
	jae	.LBB9_157
	shrl	$4, %r9d
	movzbl	1(%rbp,%rdi), %ecx
	leaq	utf8.accept_ranges(%rip), %r10
	cmpb	(%r10,%r9,2), %cl
	jb	.LBB9_193
	leaq	utf8.accept_ranges(%rip), %r10
	cmpb	%cl, 1(%r10,%r9,2)
	jb	.LBB9_193
	leaq	-194(%rax), %r9
	movzbl	%cl, %ecx
	cmpq	$29, %r9
	ja	.LBB9_183
	andl	$31, %eax
	shll	$6, %eax
	andl	$63, %ecx
	orl	%eax, %ecx
	movl	$2, %r12d
	jmp	.LBB9_190
.LBB9_196:
	testq	%r13, %r13
	jne	.LBB9_214
	shlq	$4, %r13
	leaq	(%rsp,%r13), %rdx
	addq	$112, %rdx
	leaq	256(%rsp), %rcx
	movq	%rsi, %r9
	callq	fmt.fmt_arg
	andb	$-2, 88(%rsp)
	leaq	128(%rsp), %r13
	jmp	.LBB9_22
.LBB9_156:
	cmpq	$15, %r12
	je	.LBB9_157
	shrl	$4, %ecx
	movzbl	1(%r12,%rdi), %r9d
	leaq	utf8.accept_ranges(%rip), %r10
	cmpb	(%r10,%rcx,2), %r9b
	jb	.LBB9_171
	cmpb	%r9b, 1(%r10,%rcx,2)
	jb	.LBB9_171
	leaq	-194(%rax), %r10
	movzbl	%r9b, %ecx
	cmpq	$29, %r10
	ja	.LBB9_162
	andl	$31, %eax
	shll	$6, %eax
	andl	$63, %ecx
	orl	%eax, %ecx
	movl	$2, %ebp
	movl	%ecx, %r8d
	jmp	.LBB9_171
.LBB9_183:
	cmpq	$14, %rbp
	je	.LBB9_163
	movzbl	2(%rbp,%rdi), %r9d
	cmpb	$-65, %r9b
	jg	.LBB9_193
	movl	%eax, %r10d
	andl	$-16, %r10d
	cmpl	$224, %r10d
	jne	.LBB9_187
	andl	$15, %eax
	shll	$12, %eax
	andl	$63, %ecx
	shll	$6, %ecx
	orl	%eax, %ecx
	andl	$63, %r9d
	orl	%r9d, %ecx
	movl	$3, %r12d
	jmp	.LBB9_190
.LBB9_117:
	cmpq	$14, %r12
	jae	.LBB9_118
	movzbl	2(%r12,%rdi), %ebp
	cmpb	$-65, %bpl
	jg	.LBB9_128
	movl	%ecx, %r14d
	andl	$-16, %r14d
	cmpl	$224, %r14d
	jne	.LBB9_123
	andl	$15, %ecx
	shll	$12, %ecx
	andl	$63, %r10d
	shll	$6, %r10d
	orl	%ecx, %r10d
	andl	$63, %ebp
	orl	%r10d, %ebp
	movl	$3, %edx
	movl	%ebp, %r8d
	jmp	.LBB9_128
.LBB9_90:
	movq	296(%rsp), %rax
	testq	%rax, %rax
	je	.LBB9_92
	movq	304(%rsp), %rcx
	movq	$0, 128(%rsp)
	movq	%rsi, 48(%rsp)
	movq	%r13, 40(%rsp)
	movq	$0, 32(%rsp)
	movl	$4, %edx
	leaq	.Lggv$265(%rip), %r8
	xorl	%r9d, %r9d
	callq	*%rax
	movq	128(%rsp), %rax
	addq	%rax, 368(%rsp)
.LBB9_92:
	movb	$1, %al
.LBB9_74:
	movq	%r14, %r12
	xorl	%r9d, %r9d
	jmp	.LBB9_97
.LBB9_162:
	cmpq	$14, %r12
	jae	.LBB9_163
	movzbl	2(%r12,%rdi), %r9d
	cmpb	$-65, %r9b
	jg	.LBB9_171
	movl	%eax, %r10d
	andl	$-16, %r10d
	cmpl	$224, %r10d
	jne	.LBB9_167
	andl	$15, %eax
	shll	$12, %eax
	andl	$63, %ecx
	shll	$6, %ecx
	orl	%eax, %ecx
	andl	$63, %r9d
	orl	%ecx, %r9d
	movl	$3, %ebp
	movl	%r9d, %r8d
	jmp	.LBB9_171
.LBB9_187:
	cmpq	$13, %rbp
	jae	.LBB9_168
	movzbl	3(%rbp,%rdi), %edx
	cmpb	$-65, %dl
	jg	.LBB9_193
	andl	$7, %eax
	shll	$18, %eax
	andl	$63, %ecx
	shll	$12, %ecx
	orl	%eax, %ecx
	andl	$63, %r9d
	shll	$6, %r9d
	orl	%ecx, %r9d
	andl	$63, %edx
	orl	%r9d, %edx
	movl	$4, %r12d
	movl	%edx, %ecx
	jmp	.LBB9_190
.LBB9_123:
	cmpq	$13, %r12
	je	.LBB9_124
	movzbl	3(%r12,%rdi), %r11d
	cmpb	$-65, %r11b
	jg	.LBB9_128
	andl	$7, %ecx
	shll	$18, %ecx
	andl	$63, %r10d
	shll	$12, %r10d
	orl	%ecx, %r10d
	andl	$63, %ebp
	shll	$6, %ebp
	orl	%r10d, %ebp
	andl	$63, %r11d
	orl	%ebp, %r11d
	movl	$4, %edx
	movl	%r11d, %r8d
	jmp	.LBB9_128
.LBB9_167:
	cmpq	$13, %r12
	je	.LBB9_168
	movzbl	3(%r12,%rdi), %edx
	cmpb	$-65, %dl
	jg	.LBB9_171
	andl	$7, %eax
	shll	$18, %eax
	andl	$63, %ecx
	shll	$12, %ecx
	orl	%eax, %ecx
	andl	$63, %r9d
	shll	$6, %r9d
	orl	%ecx, %r9d
	andl	$63, %edx
	orl	%r9d, %edx
	movl	$4, %ebp
	movl	%edx, %r8d
	jmp	.LBB9_171
.LBB9_175:
	movq	296(%rsp), %rax
	testq	%rax, %rax
	je	.LBB9_23
	movq	304(%rsp), %rcx
	movq	$0, 128(%rsp)
	movq	%rsi, 48(%rsp)
	leaq	128(%rsp), %rdx
	movq	%rdx, 40(%rsp)
	movq	$0, 32(%rsp)
	leaq	.Lggv$1a4(%rip), %r8
	jmp	.LBB9_101
.LBB9_98:
	movq	296(%rsp), %rax
	testq	%rax, %rax
	je	.LBB9_23
	movq	304(%rsp), %rcx
	movq	$0, 128(%rsp)
	movq	%rsi, 48(%rsp)
	movq	%r13, 40(%rsp)
	jmp	.LBB9_100
.LBB9_146:
	movq	296(%rsp), %rax
	testq	%rax, %rax
	je	.LBB9_23
	movq	304(%rsp), %rcx
	movq	$0, 128(%rsp)
	movq	%rsi, 48(%rsp)
	leaq	128(%rsp), %rdx
	movq	%rdx, 40(%rsp)
.LBB9_100:
	movq	$0, 32(%rsp)
	leaq	.Lggv$1a0(%rip), %r8
.LBB9_101:
	movl	$4, %edx
	xorl	%r9d, %r9d
	callq	*%rax
	movq	128(%rsp), %rax
	addq	%rax, 368(%rsp)
.LBB9_23:
	movq	88(%rsp), %r13
	testq	%r13, %r13
	je	.LBB9_208
	movq	296(%rsp), %rax
	movq	304(%rsp), %rcx
	movq	368(%rsp), %rdi
	xorps	%xmm0, %xmm0
	movaps	%xmm0, 128(%rsp)
	movaps	%xmm0, 144(%rsp)
	movq	$0, 160(%rsp)
	movq	%rax, 168(%rsp)
	movq	%rcx, 176(%rsp)
	movups	%xmm0, 184(%rsp)
	movups	%xmm0, 200(%rsp)
	movups	%xmm0, 216(%rsp)
	movq	$0, 232(%rsp)
	movq	%rdi, 240(%rsp)
	testq	%rax, %rax
	je	.LBB9_26
	movq	$0, 72(%rsp)
	movq	%rsi, 48(%rsp)
	leaq	72(%rsp), %rdx
	movq	%rdx, 40(%rsp)
	movq	$0, 32(%rsp)
	leaq	.Lggv$1a6(%rip), %r8
	movl	$4, %edx
	xorl	%r9d, %r9d
	callq	*%rax
	addq	72(%rsp), %rdi
	movq	%rdi, 240(%rsp)
.LBB9_26:
	movb	$1, %al
	leaq	104(%rsp), %rbp
	xorl	%edi, %edi
	leaq	128(%rsp), %rbx
	leaq	96(%rsp), %r14
	leaq	.Lggv$244(%rip), %r15
.LBB9_27:
	leaq	-1(%rdi), %r12
	shlq	$4, %rdi
	addq	%rbp, %rdi
	.p2align	4, 0x90
.LBB9_28:
	incq	%r12
	cmpq	$63, %r12
	ja	.LBB9_204
	addq	$16, %rdi
	btq	%r12, %r13
	jae	.LBB9_28
	testb	$1, %al
	jne	.LBB9_33
	movq	168(%rsp), %rax
	testq	%rax, %rax
	je	.LBB9_33
	movq	176(%rsp), %rcx
	movq	$0, 72(%rsp)
	movq	%rsi, 48(%rsp)
	leaq	72(%rsp), %rdx
	movq	%rdx, 40(%rsp)
	movq	$0, 32(%rsp)
	movl	$4, %edx
	movq	%r15, %r8
	xorl	%r9d, %r9d
	callq	*%rax
	movq	72(%rsp), %rax
	addq	%rax, 240(%rsp)
.LBB9_33:
	testq	%r12, %r12
	jne	.LBB9_34
	movq	112(%rsp), %rcx
	movq	(%rdi), %rax
	movq	%rcx, 96(%rsp)
	movq	%rax, 104(%rsp)
	testq	%rcx, %rcx
	je	.LBB9_200
	testq	%rax, %rax
	je	.LBB9_200
	movq	%rbx, %rcx
	movq	%r14, %rdx
	movl	$118, %r8d
	movq	%rsi, %r9
	callq	fmt.fmt_arg
	jmp	.LBB9_202
	.p2align	4, 0x90
.LBB9_200:
	movq	168(%rsp), %rax
	testq	%rax, %rax
	je	.LBB9_202
	movq	176(%rsp), %rcx
	movq	$0, 72(%rsp)
	movq	%rsi, 48(%rsp)
	leaq	72(%rsp), %rdx
	movq	%rdx, 40(%rsp)
	movq	$0, 32(%rsp)
	movl	$4, %edx
	leaq	.Lggv$24d(%rip), %r8
	xorl	%r9d, %r9d
	callq	*%rax
	movq	72(%rsp), %rax
	addq	%rax, 240(%rsp)
.LBB9_202:
	movl	$1, %edi
	xorl	%eax, %eax
	jmp	.LBB9_27
.LBB9_204:
	movb	$41, 71(%rsp)
	leaq	71(%rsp), %rax
	movq	%rax, 72(%rsp)
	movq	$1, 80(%rsp)
	movq	168(%rsp), %rax
	testq	%rax, %rax
	je	.LBB9_205
	movq	176(%rsp), %rcx
	movq	$0, 376(%rsp)
	movq	%rsi, 48(%rsp)
	leaq	376(%rsp), %rdx
	movq	%rdx, 40(%rsp)
	movq	$0, 32(%rsp)
	leaq	72(%rsp), %r8
	movl	$4, %edx
	xorl	%r9d, %r9d
	callq	*%rax
	movq	240(%rsp), %rax
	addq	376(%rsp), %rax
	movq	%rax, 240(%rsp)
	jmp	.LBB9_207
.LBB9_205:
	movq	240(%rsp), %rax
.LBB9_207:
	movq	%rax, 368(%rsp)
.LBB9_208:
	leaq	424(%rsp), %rdi
	movq	%rdi, %rcx
	movq	%rsi, %rdx
	callq	bufio.writer_flush
	movq	%rdi, %rcx
	movq	%rsi, %rdx
	callq	bufio.writer_flush
	movaps	1520(%rsp), %xmm6
	addq	$1544, %rsp
	popq	%rbx
	popq	%rbp
	popq	%rdi
	popq	%rsi
	popq	%r12
	popq	%r13
	popq	%r14
	popq	%r15
	retq
.LBB9_212:
	movq	$16, 32(%rsp)
	leaq	.Lggv$27d(%rip), %rcx
	movl	$746, %edx
	movl	$22, %r8d
	movq	%rbp, %r9
	callq	"runtime.bounds_check_error.handle_error-0"
.LBB9_210:
	movq	$16, 32(%rsp)
	leaq	.Lggv$27d(%rip), %rcx
	movl	$715, %edx
	movl	$18, %r8d
	movq	%r12, %r9
	callq	"runtime.bounds_check_error.handle_error-0"
.LBB9_209:
	movq	$16, 32(%rsp)
	leaq	.Lggv$27d(%rip), %rcx
	movl	$916, %edx
	movl	$32, %r8d
	movq	%r12, %r9
	callq	"runtime.bounds_check_error.handle_error-0"
.LBB9_213:
	movq	$16, 32(%rsp)
	leaq	.Lggv$27d(%rip), %rcx
	movl	$753, %edx
	movl	$19, %r8d
	movq	%r12, %r9
	callq	"runtime.bounds_check_error.handle_error-0"
.LBB9_34:
	movq	$1, 32(%rsp)
	leaq	.Lggv$27d(%rip), %rcx
	movl	$793, %edx
	movl	$16, %r8d
	movq	%r12, %r9
	callq	"runtime.bounds_check_error.handle_error-0"
.LBB9_211:
	movq	$1, 32(%rsp)
	leaq	.Lggv$27d(%rip), %rcx
	movl	$725, %edx
	movl	$23, %r8d
	callq	"runtime.bounds_check_error.handle_error-0"
.LBB9_157:
	movq	%rdx, 32(%rsp)
	jmp	.LBB9_112
.LBB9_111:
	movq	%r11, 32(%rsp)
.LBB9_112:
	leaq	.Lggv$10d(%rip), %rcx
	movl	$1, %r9d
	movl	$122, %edx
	movl	$10, %r8d
	callq	"runtime.bounds_check_error.handle_error-0"
.LBB9_214:
	movq	$1, 32(%rsp)
	leaq	.Lggv$27d(%rip), %rcx
	movl	$776, %edx
	movl	$23, %r8d
	movq	%r13, %r9
	callq	"runtime.bounds_check_error.handle_error-0"
.LBB9_163:
	movq	%rdx, 32(%rsp)
	jmp	.LBB9_119
.LBB9_118:
	movq	%r11, 32(%rsp)
.LBB9_119:
	leaq	.Lggv$10d(%rip), %rcx
	movl	$2, %r9d
	movl	$129, %edx
	movl	$10, %r8d
	callq	"runtime.bounds_check_error.handle_error-0"
.LBB9_168:
	movq	%rdx, 32(%rsp)
	jmp	.LBB9_125
.LBB9_124:
	movq	%r11, 32(%rsp)
.LBB9_125:
	leaq	.Lggv$10d(%rip), %rcx
	movl	$3, %r9d
	movl	$136, %edx
	movl	$10, %r8d
	callq	"runtime.bounds_check_error.handle_error-0"
	int3
	.seh_endproc

	.def	runtime.heap_allocator_proc;
	.scl	3;
	.type	32;
	.endef
	.p2align	4, 0x90
runtime.heap_allocator_proc:
.seh_proc runtime.heap_allocator_proc
	pushq	%r15
	.seh_pushreg %r15
	pushq	%r14
	.seh_pushreg %r14
	pushq	%r13
	.seh_pushreg %r13
	pushq	%r12
	.seh_pushreg %r12
	pushq	%rsi
	.seh_pushreg %rsi
	pushq	%rdi
	.seh_pushreg %rdi
	pushq	%rbp
	.seh_pushreg %rbp
	pushq	%rbx
	.seh_pushreg %rbx
	subq	$56, %rsp
	.seh_stackalloc 56
	.seh_endprologue
	movq	184(%rsp), %r14
	cmpb	$7, %dl
	ja	.LBB10_35
	movq	160(%rsp), %rax
	movzbl	%dl, %ecx
	leaq	.LJTI10_0(%rip), %r10
	movslq	(%r10,%rcx,4), %rcx
	addq	%r10, %rcx
	jmpq	*%rcx
.LBB10_2:
	xorl	%esi, %esi
	testb	%dl, %dl
	sete	%sil
	cmpq	$9, %r9
	movl	$8, %ebx
	cmovgeq	%r9, %rbx
	movq	%r8, %r15
	leaq	(%rbx,%r8), %rdi
	addq	$7, %rdi
	callq	GetProcessHeap
	shll	$3, %esi
	movq	%rax, %rcx
	movl	%esi, %edx
	movq	%rdi, %r8
	callq	HeapAlloc
	xorl	%ecx, %ecx
	movb	$1, %sil
	testq	%rax, %rax
	je	.LBB10_3
	leaq	(%rbx,%r15), %r9
	decq	%r9
	leaq	8(%rax), %r8
	leaq	(%rbx,%rax), %r10
	addq	$7, %r10
	negq	%rbx
	andq	%r10, %rbx
	movq	%r15, %r10
	subq	%r8, %r10
	addq	%rbx, %r10
	movl	$0, %r8d
	cmpq	%r9, %r10
	jg	.LBB10_6
	movq	%r15, %rdx
	movq	%rax, -8(%rbx)
	xorl	%esi, %esi
	testq	%r15, %r15
	cmovleq	%rsi, %rdx
	movq	%rbx, %rcx
	movq	%rdx, %r8
	jmp	.LBB10_6
.LBB10_10:
	cmpq	$9, %r9
	movl	$8, %r15d
	cmovgeq	%r9, %r15
	leaq	(%r15,%r8), %rsi
	leaq	(%r15,%r8), %r12
	decq	%r12
	testq	%rax, %rax
	je	.LBB10_11
	movq	-8(%rax), %rbx
	addq	$7, %rsi
	je	.LBB10_17
	movl	%edx, %ebp
	movq	%r8, %r13
	callq	GetProcessHeap
	movq	%rax, %rcx
	movl	$8, %edx
	testq	%rbx, %rbx
	je	.LBB10_21
	movq	%rbx, %r8
	movq	%rsi, %r9
	callq	HeapReAlloc
	jmp	.LBB10_23
.LBB10_37:
	xorps	%xmm0, %xmm0
	movups	%xmm0, (%r14)
	movb	$4, %sil
	jmp	.LBB10_36
.LBB10_7:
	testq	%rax, %rax
	je	.LBB10_35
	movq	-8(%rax), %rsi
	testq	%rsi, %rsi
	je	.LBB10_35
	callq	GetProcessHeap
	movq	%rax, %rcx
	xorl	%edx, %edx
	movq	%rsi, %r8
	callq	HeapFree
	jmp	.LBB10_35
.LBB10_33:
	testq	%rax, %rax
	je	.LBB10_35
	movb	$-37, (%rax)
.LBB10_35:
	xorps	%xmm0, %xmm0
	movups	%xmm0, (%r14)
	xorl	%esi, %esi
	jmp	.LBB10_36
.LBB10_11:
	movq	%r8, %rbx
	xorl	%edi, %edi
	cmpb	$3, %dl
	sete	%dil
	addq	$7, %rsi
	callq	GetProcessHeap
	shll	$3, %edi
	movq	%rax, %rcx
	movl	%edi, %edx
	movq	%rsi, %r8
	callq	HeapAlloc
	xorl	%ecx, %ecx
	movb	$1, %sil
	testq	%rax, %rax
	je	.LBB10_12
	leaq	8(%rax), %rdx
	leaq	(%r15,%rax), %r8
	addq	$7, %r8
	negq	%r15
	andq	%r8, %r15
	movq	%rbx, %r8
	subq	%rdx, %r8
	addq	%r15, %r8
	movl	$0, %edx
	cmpq	%r12, %r8
	jg	.LBB10_15
	movq	%rax, -8(%r15)
	xorl	%esi, %esi
	testq	%rbx, %rbx
	cmovleq	%rsi, %rbx
	movq	%r15, %rcx
	movq	%rbx, %rdx
	jmp	.LBB10_15
.LBB10_3:
	xorl	%r8d, %r8d
.LBB10_6:
	movq	%rcx, (%r14)
	movq	%r8, 8(%r14)
	jmp	.LBB10_36
.LBB10_17:
	testq	%rbx, %rbx
	je	.LBB10_18
	movq	%r8, %rsi
	movl	%edx, %ebp
	callq	GetProcessHeap
	xorl	%edi, %edi
	movq	%rax, %rcx
	xorl	%edx, %edx
	movq	%rbx, %r8
	callq	HeapFree
	movl	%ebp, %edx
	movq	%rsi, %r8
	jmp	.LBB10_24
.LBB10_21:
	movq	%rsi, %r8
	callq	HeapAlloc
.LBB10_23:
	movq	%rax, %rdi
	movq	%r13, %r8
	movl	%ebp, %edx
.LBB10_24:
	xorl	%eax, %eax
	movb	$1, %sil
	testq	%rdi, %rdi
	je	.LBB10_25
	leaq	8(%rdi), %rcx
	leaq	(%r15,%rdi), %r9
	addq	$7, %r9
	negq	%r15
	andq	%r9, %r15
	movq	%r8, %r9
	subq	%rcx, %r9
	addq	%r15, %r9
	movl	$0, %ebx
	cmpq	%r12, %r9
	jg	.LBB10_32
	xorl	%esi, %esi
	testq	%r8, %r8
	movl	$0, %ebx
	cmovgq	%r8, %rbx
	movq	%rdi, -8(%r15)
	cmpb	$3, %dl
	jne	.LBB10_31
	movq	168(%rsp), %r9
	subq	%r9, %r8
	jle	.LBB10_31
	testq	%r9, %r9
	js	.LBB10_38
	addq	%r15, %r9
	xorl	%esi, %esi
	movq	%r9, %rcx
	xorl	%edx, %edx
	callq	memset
.LBB10_31:
	movq	%r15, %rax
	jmp	.LBB10_32
.LBB10_25:
	xorl	%ebx, %ebx
.LBB10_32:
	movq	%rax, (%r14)
	movq	%rbx, 8(%r14)
	jmp	.LBB10_36
.LBB10_12:
	xorl	%edx, %edx
.LBB10_15:
	movq	%rcx, (%r14)
	movq	%rdx, 8(%r14)
.LBB10_36:
	movl	%esi, %eax
	addq	$56, %rsp
	popq	%rbx
	popq	%rbp
	popq	%rdi
	popq	%rsi
	popq	%r12
	popq	%r13
	popq	%r14
	popq	%r15
	retq
.LBB10_18:
	xorl	%edi, %edi
	jmp	.LBB10_24
.LBB10_38:
	movq	%rbx, 40(%rsp)
	movq	%rbx, 32(%rsp)
	leaq	.Lggv$24e(%rip), %rcx
	movl	$63, %edx
	movl	$37, %r8d
	callq	runtime.slice_handle_error
	int3
	.section	.rdata,"dr"
	.p2align	2, 0x0
.LJTI10_0:
	.long	.LBB10_2-.LJTI10_0
	.long	.LBB10_7-.LJTI10_0
	.long	.LBB10_37-.LJTI10_0
	.long	.LBB10_10-.LJTI10_0
	.long	.LBB10_33-.LJTI10_0
	.long	.LBB10_37-.LJTI10_0
	.long	.LBB10_2-.LJTI10_0
	.long	.LBB10_10-.LJTI10_0
	.text
	.seh_endproc

	.def	"os._file_stream_proc-827";
	.scl	3;
	.type	32;
	.endef
	.p2align	4, 0x90
"os._file_stream_proc-827":
.seh_proc "os._file_stream_proc-827"
	pushq	%r15
	.seh_pushreg %r15
	pushq	%r14
	.seh_pushreg %r14
	pushq	%r13
	.seh_pushreg %r13
	pushq	%r12
	.seh_pushreg %r12
	pushq	%rsi
	.seh_pushreg %rsi
	pushq	%rdi
	.seh_pushreg %rdi
	pushq	%rbp
	.seh_pushreg %rbp
	pushq	%rbx
	.seh_pushreg %rbx
	subq	$2424, %rsp
	.seh_stackalloc 2424
	movaps	%xmm6, 2400(%rsp)
	.seh_savexmm %xmm6, 2400
	.seh_endprologue
	cmpq	$9, %rdx
	ja	.LBB11_72
	movq	%r9, %r14
	movq	%r8, %r15
	movq	%rcx, %rdi
	xorl	%ebx, %ebx
	leaq	.LJTI11_0(%rip), %rax
	movslq	(%rax,%rdx,4), %rcx
	addq	%rax, %rcx
	jmpq	*%rcx
.LBB11_2:
	movq	%rdi, %rcx
	callq	CloseHandle
	testl	%eax, %eax
	jne	.LBB11_72
	jmp	.LBB11_71
.LBB11_3:
	movq	8(%r15), %r14
	testq	%r14, %r14
	je	.LBB11_11
	movl	$0, 80(%rsp)
	jle	.LBB11_11
	xorl	%esi, %esi
	movl	$1073741824, %ebp
	leaq	80(%rsp), %rbx
	.p2align	4, 0x90
.LBB11_6:
	movq	8(%r15), %rax
	cmpq	%rax, %rsi
	jae	.LBB11_111
	movl	%r14d, %r8d
	subl	%esi, %r8d
	cmpl	$1073741824, %r8d
	cmovgel	%ebp, %r8d
	movq	(%r15), %rdx
	addq	%rsi, %rdx
	movq	$0, 32(%rsp)
	movq	%rdi, %rcx
	movq	%rbx, %r9
	callq	WriteFile
	movl	80(%rsp), %ecx
	testq	%rcx, %rcx
	je	.LBB11_94
	testl	%eax, %eax
	je	.LBB11_94
	addq	%rcx, %rsi
	cmpq	%r14, %rsi
	jl	.LBB11_6
	testq	%rsi, %rsi
	jne	.LBB11_73
.LBB11_11:
	movl	$1, %ebx
	xorl	%esi, %esi
	jmp	.LBB11_106
.LBB11_12:
	movl	$767, %esi
	jmp	.LBB11_106
.LBB11_13:
	cmpq	$0, 8(%r15)
	je	.LBB11_98
	movl	$0, 60(%rsp)
	leaq	60(%rsp), %rdx
	movq	%rdi, %rcx
	callq	GetConsoleMode
	movq	8(%r15), %rcx
	cmpq	$1073741824, %rcx
	movl	$1073741824, %ebx
	cmovlq	%rcx, %rbx
	testl	%eax, %eax
	je	.LBB11_90
	testq	%rcx, %rcx
	js	.LBB11_117
	je	.LBB11_98
	movq	(%r15), %r14
	xorl	%esi, %esi
	leaq	1628(%rsp), %r12
	movl	$772, %r8d
	movq	%r12, %rcx
	xorl	%edx, %edx
	callq	memset
	leaq	80(%rsp), %rcx
	movl	$1544, %r8d
	xorl	%edx, %edx
	callq	memset
	movq	%rbx, %rax
	shrq	$2, %rax
	cmpq	$2, %rax
	movl	$1, %ecx
	cmovgeq	%rax, %rcx
	cmpq	$386, %rcx
	movl	$386, %r8d
	cmovbq	%rcx, %r8
	leaq	48(%rsp), %rbp
	movq	%r14, 64(%rsp)
	movq	%r8, 72(%rsp)
.LBB11_18:
	movl	$0, 48(%rsp)
	movq	$0, 32(%rsp)
	movq	%rdi, %rcx
	movq	%r12, %rdx
	movq	%rbp, %r9
	callq	ReadConsoleW
	testl	%eax, %eax
	je	.LBB11_20
	xorl	%r13d, %r13d
	jmp	.LBB11_21
.LBB11_20:
	callq	GetLastError
	movl	%eax, %r13d
.LBB11_21:
	movl	48(%rsp), %r15d
	cmpq	$387, %r15
	jae	.LBB11_115
	testq	%r15, %r15
	je	.LBB11_49
	xorl	%ebp, %ebp
	xorl	%r12d, %r12d
	.p2align	4, 0x90
.LBB11_24:
	cmpq	$1543, %rbp
	jg	.LBB11_42
	cmpq	%r15, %r12
	jae	.LBB11_109
	movzwl	1628(%rsp,%r12,2), %eax
	leal	8192(%rax), %ecx
	movzwl	%cx, %ecx
	cmpl	$63488, %ecx
	jae	.LBB11_29
	cmpw	$127, %ax
	ja	.LBB11_35
	movl	$1, %r9d
	xorl	%edx, %edx
	xorl	%ecx, %ecx
	jmp	.LBB11_39
	.p2align	4, 0x90
.LBB11_29:
	movl	$65533, %ecx
	cmpl	$56319, %eax
	ja	.LBB11_38
	leaq	1(%r12), %r10
	cmpq	%r15, %r10
	jge	.LBB11_38
	movzwl	1630(%rsp,%r12,2), %edx
	movl	%edx, %r8d
	andl	$64512, %r8d
	cmpl	$56320, %r8d
	jne	.LBB11_38
	shll	$10, %eax
	addl	%edx, %eax
	addl	$-56613888, %eax
	movl	%eax, %ecx
	andl	$2095104, %ecx
	movl	$65533, %r8d
	cmpl	$55296, %ecx
	je	.LBB11_34
	movl	%eax, %r8d
.LBB11_34:
	movl	%r8d, %eax
	shrl	$18, %eax
	orb	$-16, %al
	movl	%r8d, %edx
	shrl	$12, %edx
	andb	$63, %dl
	orb	$-128, %dl
	movl	%r8d, %ecx
	shrl	$6, %ecx
	andb	$63, %cl
	orb	$-128, %cl
	andb	$63, %r8b
	orb	$-128, %r8b
	movl	$4, %r9d
	movq	%r10, %r12
	jmp	.LBB11_40
.LBB11_35:
	cmpl	$2048, %eax
	jae	.LBB11_37
	movl	%eax, %r8d
	shrl	$6, %r8d
	orb	$-64, %r8b
	andb	$63, %al
	movl	%eax, %edx
	orb	$-128, %dl
	movl	$2, %r9d
	xorl	%ecx, %ecx
	movl	%r8d, %eax
	jmp	.LBB11_39
.LBB11_37:
	movl	%eax, %ecx
	andl	$63488, %ecx
	cmpl	$55296, %ecx
	movl	$65533, %ecx
	cmovel	%ecx, %eax
	movl	%eax, %ecx
.LBB11_38:
	movl	%ecx, %eax
	shrl	$12, %eax
	orb	$-32, %al
	movl	%ecx, %edx
	shrl	$6, %edx
	andb	$63, %dl
	orb	$-128, %dl
	andb	$63, %cl
	orb	$-128, %cl
	movl	$3, %r9d
.LBB11_39:
	xorl	%r8d, %r8d
.LBB11_40:
	movb	%al, 52(%rsp)
	movb	%dl, 53(%rsp)
	movb	%cl, 54(%rsp)
	movb	%r8b, 55(%rsp)
	testq	%rbp, %rbp
	js	.LBB11_110
	movl	$1544, %r14d
	subq	%rbp, %r14
	cmpq	%r9, %r14
	cmovgeq	%r9, %r14
	leaq	(%rsp,%rbp), %rcx
	addq	$80, %rcx
	leaq	52(%rsp), %rdx
	movq	%r14, %r8
	callq	memcpy
	addq	%r14, %rbp
	incq	%r12
	cmpq	%r15, %r12
	jl	.LBB11_24
.LBB11_42:
	cmpq	$1544, %rbp
	ja	.LBB11_116
	xorl	%eax, %eax
	movq	64(%rsp), %r14
	.p2align	4, 0x90
.LBB11_44:
	cmpq	%rbx, %rsi
	jge	.LBB11_48
	movzbl	80(%rsp,%rax), %ecx
	cmpb	$26, %cl
	je	.LBB11_93
	cmpq	%rbx, %rsi
	jae	.LBB11_112
	movb	%cl, (%r14,%rsi)
	incq	%rsi
	incq	%rax
	cmpq	%rax, %rbp
	jne	.LBB11_44
.LBB11_48:
	movl	48(%rsp), %eax
	leaq	1628(%rsp), %r12
	leaq	48(%rsp), %rbp
	jmp	.LBB11_50
.LBB11_49:
	xorl	%eax, %eax
.LBB11_50:
	movq	72(%rsp), %r8
	cmpl	%r8d, %eax
	jb	.LBB11_93
	jne	.LBB11_57
	cmpq	$2, %rsi
	jl	.LBB11_57
	leaq	-2(%rsi), %r9
	cmpq	%rbx, %rsi
	jg	.LBB11_118
	addq	%r14, %r9
	leaq	.Lcsbs$f1(%rip), %rax
	cmpq	%rax, %r9
	je	.LBB11_93
	cmpb	$13, (%r9)
	jne	.LBB11_57
	cmpb	$10, 1(%r9)
	je	.LBB11_93
.LBB11_57:
	cmpq	%rbx, %rsi
	jge	.LBB11_93
	testq	%r13, %r13
	je	.LBB11_18
	jmp	.LBB11_93
.LBB11_59:
	testq	%r14, %r14
	js	.LBB11_85
	movq	8(%r15), %rbp
	movl	$1, %ebx
	testq	%rbp, %rbp
	jle	.LBB11_89
	movq	(%r15), %r15
	xorps	%xmm6, %xmm6
	leaq	80(%rsp), %r13
	leaq	1628(%rsp), %r12
	xorl	%esi, %esi
	jmp	.LBB11_64
	.p2align	4, 0x90
.LBB11_62:
	movl	1628(%rsp), %r9d
	cmpq	%r9, %rbp
	jb	.LBB11_114
.LBB11_63:
	addq	%r9, %rsi
	addq	%r9, %r15
	addq	%r9, %r14
	subq	%r9, %rbp
	jle	.LBB11_67
.LBB11_64:
	cmpq	$1073741824, %rbp
	movl	$1073741824, %r8d
	cmovlq	%rbp, %r8
	movq	%r14, %rax
	shrq	$32, %rax
	movaps	%xmm6, 80(%rsp)
	movl	%r14d, 96(%rsp)
	movl	%eax, 100(%rsp)
	movq	$0, 104(%rsp)
	movl	$0, 1628(%rsp)
	movq	%r13, 32(%rsp)
	movq	%rdi, %rcx
	movq	%r15, %rdx
	movq	%r12, %r9
	callq	ReadFile
	testl	%eax, %eax
	jne	.LBB11_62
	callq	GetLastError
	movl	%eax, %r9d
	testl	%eax, %eax
	je	.LBB11_63
	cmpl	$38, %eax
	jne	.LBB11_107
.LBB11_67:
	xorl	%r13d, %r13d
	testq	%rsi, %rsi
	jne	.LBB11_103
	jmp	.LBB11_108
.LBB11_68:
	movq	$0, 80(%rsp)
	leaq	80(%rsp), %rdx
	movq	%rdi, %rcx
	callq	GetFileSizeEx
	testl	%eax, %eax
	je	.LBB11_101
	xorl	%r13d, %r13d
	jmp	.LBB11_102
.LBB11_70:
	movq	%rdi, %rcx
	callq	FlushFileBuffers
	testl	%eax, %eax
	jne	.LBB11_72
.LBB11_71:
	callq	GetLastError
.LBB11_72:
	xorl	%esi, %esi
	jmp	.LBB11_73
.LBB11_74:
	testq	%r14, %r14
	js	.LBB11_85
	movq	8(%r15), %r13
	movl	$1, %ebx
	testq	%r13, %r13
	jle	.LBB11_89
	movq	(%r15), %r15
	xorl	%esi, %esi
	xorps	%xmm6, %xmm6
	leaq	80(%rsp), %rbp
	leaq	1628(%rsp), %r12
	jmp	.LBB11_79
	.p2align	4, 0x90
.LBB11_77:
	movl	1628(%rsp), %r9d
	cmpq	%r9, %r13
	jb	.LBB11_113
.LBB11_78:
	addq	%r9, %rsi
	addq	%r9, %r15
	addq	%r9, %r14
	subq	%r9, %r13
	jle	.LBB11_88
.LBB11_79:
	cmpq	$1073741824, %r13
	movl	$1073741824, %r8d
	cmovlq	%r13, %r8
	movq	%r14, %rax
	shrq	$32, %rax
	movaps	%xmm6, 80(%rsp)
	movl	%r14d, 96(%rsp)
	movl	%eax, 100(%rsp)
	movq	$0, 104(%rsp)
	movl	$0, 1628(%rsp)
	movq	%rbp, 32(%rsp)
	movq	%rdi, %rcx
	movq	%r15, %rdx
	movq	%r12, %r9
	callq	WriteFile
	testl	%eax, %eax
	jne	.LBB11_77
	callq	GetLastError
	testl	%eax, %eax
	jne	.LBB11_99
	xorl	%r9d, %r9d
	jmp	.LBB11_78
.LBB11_82:
	movq	%r14, %rax
	shrq	$32, %rax
	movl	%eax, 80(%rsp)
	movq	%rdi, %rcx
	callq	GetFileType
	cmpl	$3, %eax
	jne	.LBB11_86
	movl	$536870912, %r13d
	xorl	%esi, %esi
	jmp	.LBB11_103
.LBB11_84:
	movl	$-1, %ebx
	xorl	%esi, %esi
	jmp	.LBB11_106
.LBB11_85:
	movl	$14, %ebx
	xorl	%esi, %esi
	jmp	.LBB11_106
.LBB11_98:
	xorl	%r13d, %r13d
	jmp	.LBB11_95
.LBB11_86:
	movq	2528(%rsp), %rax
	xorl	%ecx, %ecx
	cmpq	$1, %rax
	sete	%cl
	cmpq	$2, %rax
	movl	$2, %r9d
	cmovnel	%ecx, %r9d
	leaq	80(%rsp), %r8
	movq	%rdi, %rcx
	movl	%r14d, %edx
	callq	SetFilePointer
	cmpl	$-1, %eax
	je	.LBB11_97
	movl	80(%rsp), %ecx
	shlq	$32, %rcx
	movl	%eax, %esi
	orq	%rcx, %rsi
	xorl	%r13d, %r13d
	jmp	.LBB11_103
.LBB11_101:
	callq	GetLastError
	movl	%eax, %r13d
.LBB11_102:
	movq	80(%rsp), %rsi
	jmp	.LBB11_103
.LBB11_88:
	testq	%rsi, %rsi
	jne	.LBB11_73
.LBB11_89:
	xorl	%esi, %esi
	jmp	.LBB11_106
.LBB11_90:
	movl	$0, 56(%rsp)
	testq	%rcx, %rcx
	je	.LBB11_119
	movq	(%r15), %rdx
	movq	$0, 32(%rsp)
	leaq	56(%rsp), %r9
	movq	%rdi, %rcx
	movl	%ebx, %r8d
	callq	ReadFile
	testl	%eax, %eax
	je	.LBB11_100
	movl	56(%rsp), %esi
	xorl	%eax, %eax
	testq	%rsi, %rsi
	movl	$38, %r13d
	cmovneq	%rax, %r13
.LBB11_93:
	testq	%rsi, %rsi
	jne	.LBB11_103
	jmp	.LBB11_95
.LBB11_94:
	callq	GetLastError
	movl	%eax, %r13d
	testq	%rsi, %rsi
	jne	.LBB11_103
	jmp	.LBB11_95
.LBB11_97:
	callq	GetLastError
	movl	%eax, %r13d
	xorl	%esi, %esi
	jmp	.LBB11_103
.LBB11_99:
	movl	%eax, %r13d
	jmp	.LBB11_103
.LBB11_100:
	callq	GetLastError
	movl	%eax, %r13d
.LBB11_95:
	xorl	%esi, %esi
	testq	%r13, %r13
	je	.LBB11_96
.LBB11_103:
	testq	%r13, %r13
	je	.LBB11_73
	movl	$1, %ebx
	cmpl	$38, %r13d
	je	.LBB11_106
	movl	$14, %ebx
	jmp	.LBB11_106
.LBB11_73:
	xorl	%ebx, %ebx
.LBB11_106:
	movq	2536(%rsp), %rax
	movq	%rsi, (%rax)
	movl	%ebx, %eax
	movaps	2400(%rsp), %xmm6
	addq	$2424, %rsp
	popq	%rbx
	popq	%rbp
	popq	%rdi
	popq	%rsi
	popq	%r12
	popq	%r13
	popq	%r14
	popq	%r15
	retq
.LBB11_96:
	movl	$1, %ebx
	jmp	.LBB11_106
.LBB11_107:
	movq	%r9, %r13
	testq	%rsi, %rsi
	jne	.LBB11_103
.LBB11_108:
	xorl	%esi, %esi
	testq	%r13, %r13
	jne	.LBB11_103
	jmp	.LBB11_106
.LBB11_109:
	movq	%r15, 32(%rsp)
	leaq	.Lggv$5f(%rip), %rcx
	movl	$117, %edx
	movl	$17, %r8d
	movq	%r12, %r9
	callq	"runtime.bounds_check_error.handle_error-0"
.LBB11_110:
	movq	$1544, 40(%rsp)
	movq	$1544, 32(%rsp)
	leaq	.Lggv$5f(%rip), %rcx
	movl	$127, %edx
	movl	$14, %r8d
	movq	%rbp, %r9
	callq	runtime.slice_handle_error
.LBB11_111:
	movq	%rax, 32(%rsp)
	leaq	.Lggv$115(%rip), %rcx
	movl	$91, %edx
	movl	$48, %r8d
	movq	%rsi, %r9
	callq	"runtime.bounds_check_error.handle_error-0"
.LBB11_112:
	movq	%rbx, 32(%rsp)
	leaq	.Lggv$115(%rip), %rcx
	movl	$134, %edx
	movl	$6, %r8d
	movq	%rsi, %r9
	callq	"runtime.bounds_check_error.handle_error-0"
.LBB11_113:
	movq	%r13, 40(%rsp)
	movq	%r13, 32(%rsp)
	leaq	.Lggv$115(%rip), %rcx
	movl	$327, %edx
	movl	$8, %r8d
	callq	runtime.slice_handle_error
.LBB11_114:
	movq	%rbp, 40(%rsp)
	movq	%rbp, 32(%rsp)
	leaq	.Lggv$115(%rip), %rcx
	movl	$299, %edx
	movl	$8, %r8d
	callq	runtime.slice_handle_error
.LBB11_115:
	movq	%r15, 32(%rsp)
	movq	$386, 40(%rsp)
	leaq	.Lggv$115(%rip), %rcx
	movl	$124, %edx
	movl	$50, %r8d
	xorl	%r9d, %r9d
	callq	runtime.slice_handle_error
.LBB11_116:
	movq	%rbp, 32(%rsp)
	movq	$1544, 40(%rsp)
	leaq	.Lggv$115(%rip), %rcx
	movl	$125, %edx
	movl	$14, %r8d
	xorl	%r9d, %r9d
	callq	runtime.slice_handle_error
.LBB11_117:
	movq	%rcx, 40(%rsp)
	movq	%rcx, 32(%rsp)
	leaq	.Lggv$115(%rip), %rcx
	movl	$167, %edx
	movl	$46, %r8d
	xorl	%r9d, %r9d
	callq	runtime.slice_handle_error
.LBB11_118:
	movq	%rbx, 40(%rsp)
	movq	%rsi, 32(%rsp)
	leaq	.Lggv$115(%rip), %rcx
	movl	$143, %edx
	movl	$58, %r8d
	callq	runtime.slice_handle_error
.LBB11_119:
	movq	$0, 32(%rsp)
	leaq	.Lggv$115(%rip), %rcx
	movl	$174, %edx
	movl	$40, %r8d
	xorl	%r9d, %r9d
	callq	"runtime.bounds_check_error.handle_error-0"
	int3
	.section	.rdata,"dr"
	.p2align	2, 0x0
.LJTI11_0:
	.long	.LBB11_2-.LJTI11_0
	.long	.LBB11_70-.LJTI11_0
	.long	.LBB11_13-.LJTI11_0
	.long	.LBB11_59-.LJTI11_0
	.long	.LBB11_3-.LJTI11_0
	.long	.LBB11_74-.LJTI11_0
	.long	.LBB11_82-.LJTI11_0
	.long	.LBB11_68-.LJTI11_0
	.long	.LBB11_84-.LJTI11_0
	.long	.LBB11_12-.LJTI11_0
	.text
	.seh_endproc

	.def	"runtime.windows_trap_array_bounds-660";
	.scl	3;
	.type	32;
	.endef
	.p2align	4, 0x90
"runtime.windows_trap_array_bounds-660":
.seh_proc "runtime.windows_trap_array_bounds-660"
	subq	$40, %rsp
	.seh_stackalloc 40
	.seh_endprologue
	movl	$-1073741684, %ecx
	xorl	%edx, %edx
	xorl	%r8d, %r8d
	xorl	%r9d, %r9d
	callq	RaiseException
	int3
	.seh_endproc

	.def	runtime.type_assertion_trap;
	.scl	3;
	.type	32;
	.endef
	.p2align	4, 0x90
runtime.type_assertion_trap:
.seh_proc runtime.type_assertion_trap
	subq	$40, %rsp
	.seh_stackalloc 40
	.seh_endprologue
	callq	"runtime.windows_trap_type_assertion-663"
	int3
	.seh_endproc

	.def	"runtime.windows_trap_type_assertion-663";
	.scl	3;
	.type	32;
	.endef
	.p2align	4, 0x90
"runtime.windows_trap_type_assertion-663":
.seh_proc "runtime.windows_trap_type_assertion-663"
	subq	$40, %rsp
	.seh_stackalloc 40
	.seh_endprologue
	callq	"runtime.windows_trap_array_bounds-660"
	int3
	.seh_endproc

	.def	runtime.bounds_check_error;
	.scl	3;
	.type	32;
	.endef
	.p2align	4, 0x90
runtime.bounds_check_error:
.seh_proc runtime.bounds_check_error
	subq	$40, %rsp
	.seh_stackalloc 40
	.seh_endprologue
	movq	80(%rsp), %rax
	cmpq	%rax, %r9
	jae	.LBB15_2
	addq	$40, %rsp
	retq
.LBB15_2:
	movq	%rax, 32(%rsp)
	callq	"runtime.bounds_check_error.handle_error-0"
	int3
	.seh_endproc

	.def	io.write_u64;
	.scl	3;
	.type	32;
	.endef
	.p2align	4, 0x90
io.write_u64:
.seh_proc io.write_u64
	pushq	%r14
	.seh_pushreg %r14
	pushq	%rsi
	.seh_pushreg %rsi
	pushq	%rdi
	.seh_pushreg %rdi
	pushq	%rbx
	.seh_pushreg %rbx
	subq	$168, %rsp
	.seh_stackalloc 168
	.seh_endprologue
	movq	%r9, %rsi
	movq	%r8, %rdi
	movq	%rcx, %rbx
	movq	240(%rsp), %r14
	xorps	%xmm0, %xmm0
	movaps	%xmm0, 144(%rsp)
	movaps	%xmm0, 128(%rsp)
	leaq	128(%rsp), %rax
	movq	%rax, 96(%rsp)
	movq	$32, 104(%rsp)
	movaps	%xmm0, 80(%rsp)
	movq	%r14, 64(%rsp)
	leaq	strconv.digits(%rip), %rax
	movq	%rax, 48(%rsp)
	movb	$0, 56(%rsp)
	movq	$64, 40(%rsp)
	movb	$0, 32(%rsp)
	leaq	80(%rsp), %rcx
	leaq	96(%rsp), %rax
	movl	$10, %r9d
	movq	%rdx, %r8
	movq	%rax, %rdx
	callq	strconv.append_bits
	movaps	80(%rsp), %xmm0
	movups	%xmm0, 112(%rsp)
	movq	(%rbx), %rax
	testq	%rax, %rax
	je	.LBB16_1
	movq	8(%rbx), %rcx
	movq	$0, 72(%rsp)
	movq	%r14, 48(%rsp)
	leaq	72(%rsp), %rdx
	movq	%rdx, 40(%rsp)
	movq	$0, 32(%rsp)
	leaq	112(%rsp), %r8
	movl	$4, %edx
	xorl	%r9d, %r9d
	callq	*%rax
	movq	72(%rsp), %rcx
	testq	%rdi, %rdi
	je	.LBB16_4
	addq	%rcx, (%rdi)
	jmp	.LBB16_4
.LBB16_1:
	movl	$-1, %eax
	xorl	%ecx, %ecx
.LBB16_4:
	movq	%rcx, (%rsi)
	addq	$168, %rsp
	popq	%rbx
	popq	%rdi
	popq	%rsi
	popq	%r14
	retq
	.seh_endproc

	.def	io.write_i64;
	.scl	3;
	.type	32;
	.endef
	.p2align	4, 0x90
io.write_i64:
.seh_proc io.write_i64
	pushq	%r14
	.seh_pushreg %r14
	pushq	%rsi
	.seh_pushreg %rsi
	pushq	%rdi
	.seh_pushreg %rdi
	pushq	%rbx
	.seh_pushreg %rbx
	subq	$168, %rsp
	.seh_stackalloc 168
	.seh_endprologue
	movq	%r9, %rsi
	movq	%r8, %rdi
	movq	%rcx, %rbx
	movq	240(%rsp), %r14
	xorps	%xmm0, %xmm0
	movaps	%xmm0, 144(%rsp)
	movaps	%xmm0, 128(%rsp)
	leaq	128(%rsp), %rax
	movq	%rax, 96(%rsp)
	movq	$32, 104(%rsp)
	movaps	%xmm0, 80(%rsp)
	movq	%r14, 64(%rsp)
	leaq	strconv.digits(%rip), %rax
	movq	%rax, 48(%rsp)
	movb	$0, 56(%rsp)
	movq	$64, 40(%rsp)
	movb	$1, 32(%rsp)
	leaq	80(%rsp), %rcx
	leaq	96(%rsp), %rax
	movl	$10, %r9d
	movq	%rdx, %r8
	movq	%rax, %rdx
	callq	strconv.append_bits
	movaps	80(%rsp), %xmm0
	movups	%xmm0, 112(%rsp)
	movq	(%rbx), %rax
	testq	%rax, %rax
	je	.LBB17_1
	movq	8(%rbx), %rcx
	movq	$0, 72(%rsp)
	movq	%r14, 48(%rsp)
	leaq	72(%rsp), %rdx
	movq	%rdx, 40(%rsp)
	movq	$0, 32(%rsp)
	leaq	112(%rsp), %r8
	movl	$4, %edx
	xorl	%r9d, %r9d
	callq	*%rax
	movq	72(%rsp), %rcx
	testq	%rdi, %rdi
	je	.LBB17_4
	addq	%rcx, (%rdi)
	jmp	.LBB17_4
.LBB17_1:
	movl	$-1, %eax
	xorl	%ecx, %ecx
.LBB17_4:
	movq	%rcx, (%rsi)
	addq	$168, %rsp
	popq	%rbx
	popq	%rdi
	popq	%rsi
	popq	%r14
	retq
	.seh_endproc

	.def	runtime.default_random_generator_proc;
	.scl	3;
	.type	32;
	.endef
	.p2align	4, 0x90
runtime.default_random_generator_proc:
	pushq	%r14
	pushq	%rsi
	pushq	%rdi
	pushq	%rbx
	subq	$40, %rsp
	testq	%rcx, %rcx
	movl	_tls_index(%rip), %eax
	movq	%gs:88, %r9
	movq	(%r9,%rax,8), %rax
	leaq	"runtime.default_random_generator_proc-.global_rand_seed-29264"@SECREL32(%rax), %rsi
	cmovneq	%rcx, %rsi
	cmpq	$2, %rdx
	je	.LBB18_18
	cmpq	$1, %rdx
	je	.LBB18_13
	testq	%rdx, %rdx
	jne	.LBB18_21
	movq	(%rsi), %rdx
	testq	%rdx, %rdx
	jne	.LBB18_7
	cmpq	$0, 8(%rsi)
	je	.LBB18_6
	xorl	%edx, %edx
	jmp	.LBB18_7
.LBB18_13:
	movq	$0, 32(%rsp)
	movq	(%r8), %rdx
	testq	%rdx, %rdx
	je	.LBB18_16
	movq	8(%r8), %rax
	testq	%rax, %rax
	jle	.LBB18_16
	cmpq	$8, %rax
	movl	$8, %r8d
	cmovlq	%rax, %r8
	leaq	32(%rsp), %rcx
	callq	memcpy
	movq	32(%rsp), %rdx
	testq	%rdx, %rdx
	jne	.LBB18_17
.LBB18_16:
	rdtsc
	shlq	$32, %rdx
	orq	%rax, %rdx
.LBB18_17:
	leaq	1(,%rdx,2), %rax
	movq	%rax, 8(%rsi)
	leaq	(%rdx,%rdx,2), %rax
	incq	%rax
	movabsq	$6364136223846793005, %rcx
	imulq	%rax, %rcx
	leaq	(%rcx,%rdx,2), %rax
	incq	%rax
	movq	%rax, (%rsi)
	jmp	.LBB18_21
.LBB18_18:
	cmpq	$4, 8(%r8)
	jne	.LBB18_21
	movq	(%r8), %rax
	orl	$10, (%rax)
	jmp	.LBB18_21
.LBB18_6:
	rdtsc
	shlq	$32, %rdx
	orq	%rax, %rdx
	leaq	1(,%rdx,2), %rax
	movq	%rax, 8(%rsi)
	leaq	(%rdx,%rdx,2), %rax
	incq	%rax
	movabsq	$6364136223846793005, %rcx
	imulq	%rax, %rcx
	leaq	(%rcx,%rdx,2), %rdx
	incq	%rdx
	movq	%rdx, (%rsi)
.LBB18_7:
	movq	8(%r8), %rax
	cmpq	$8, %rax
	jne	.LBB18_8
	movq	(%r8), %rax
	movabsq	$6364136223846793005, %rcx
	imulq	%rdx, %rcx
	movq	8(%rsi), %r8
	orq	$1, %r8
	addq	%rcx, %r8
	movq	%r8, (%rsi)
	movq	%rdx, %rcx
	shrq	$59, %rcx
	movq	%rcx, %r8
	addq	$5, %r8
	xorq	%rdx, %r8
	movabsq	$-5840758589994634535, %rdx
	imulq	%r8, %rdx
	rorq	%cl, %rdx
	movq	%rdx, (%rax)
	jmp	.LBB18_21
.LBB18_8:
	testq	%rax, %rax
	jle	.LBB18_21
	movabsq	$-5840758589994634535, %rdx
	movabsq	$6364136223846793005, %r9
	xorl	%r10d, %r10d
	xorl	%ecx, %ecx
	xorl	%r11d, %r11d
	jmp	.LBB18_10
	.p2align	4, 0x90
.LBB18_12:
	movb	%r11b, (%rdi,%r10)
	shrq	$8, %r11
	decb	%cl
	incq	%r10
	cmpq	%r10, %rax
	je	.LBB18_21
.LBB18_10:
	movq	(%r8), %rdi
	testb	%cl, %cl
	jne	.LBB18_12
	movq	(%rsi), %rbx
	movq	8(%rsi), %r14
	movq	%rbx, %rcx
	shrq	$59, %rcx
	movq	%rcx, %r11
	addq	$5, %r11
	xorq	%rbx, %r11
	imulq	%r9, %rbx
	orq	$1, %r14
	addq	%rbx, %r14
	movq	%r14, (%rsi)
	imulq	%rdx, %r11
	rorq	%cl, %r11
	movb	$7, %cl
	jmp	.LBB18_12
.LBB18_21:
	addq	$40, %rsp
	popq	%rbx
	popq	%rdi
	popq	%rsi
	popq	%r14
	retq

	.def	runtime.slice_handle_error;
	.scl	3;
	.type	32;
	.endef
	.p2align	4, 0x90
runtime.slice_handle_error:
.seh_proc runtime.slice_handle_error
	pushq	%rsi
	.seh_pushreg %rsi
	pushq	%rdi
	.seh_pushreg %rdi
	pushq	%rbx
	.seh_pushreg %rbx
	subq	$80, %rsp
	.seh_stackalloc 80
	.seh_endprologue
	movq	%r9, %rdi
	movq	152(%rsp), %rsi
	movq	144(%rsp), %rbx
	xorps	%xmm0, %xmm0
	movups	%xmm0, 64(%rsp)
	movups	(%rcx), %xmm0
	movups	%xmm0, 40(%rsp)
	movl	%edx, 56(%rsp)
	movl	%r8d, 60(%rsp)
	leaq	40(%rsp), %rcx
	callq	runtime.print_caller_location
	leaq	.Lggv$45(%rip), %rcx
	callq	runtime.print_string
	movq	%rdi, %rcx
	callq	runtime.print_i64
	leaq	.Lggv$46(%rip), %rcx
	callq	runtime.print_string
	movq	%rbx, %rcx
	callq	runtime.print_i64
	leaq	.Lggv$250(%rip), %rcx
	callq	runtime.print_string
	movq	%rsi, %rcx
	callq	runtime.print_i64
	movb	$10, %cl
	callq	runtime.print_byte
	callq	runtime.bounds_trap
	int3
	.seh_endproc

	.def	main;
	.scl	2;
	.type	32;
	.endef
	.globl	main
	.p2align	4, 0x90
main:
.seh_proc main
	pushq	%rsi
	.seh_pushreg %rsi
	pushq	%rdi
	.seh_pushreg %rdi
	subq	$264, %rsp
	.seh_stackalloc 264
	.seh_endprologue
	movq	%rdx, %rsi
	movslq	%ecx, %rdi
	leaq	.Lggv$41(%rip), %rcx
	movl	$43, %edx
	movl	$17, %r8d
	movq	%rdi, %r9
	callq	runtime.multi_pointer_slice_expr_error
	movq	%rsi, runtime.args__.0(%rip)
	movq	%rdi, runtime.args__.1(%rip)
	xorps	%xmm0, %xmm0
	movaps	%xmm0, 32(%rsp)
	movaps	%xmm0, 48(%rsp)
	movaps	%xmm0, 64(%rsp)
	movaps	%xmm0, 80(%rsp)
	movaps	%xmm0, 96(%rsp)
	movaps	%xmm0, 112(%rsp)
	movaps	%xmm0, 128(%rsp)
	leaq	32(%rsp), %rcx
	callq	runtime.default_context
	movaps	128(%rsp), %xmm0
	movaps	%xmm0, 240(%rsp)
	movaps	112(%rsp), %xmm0
	movaps	%xmm0, 224(%rsp)
	movaps	96(%rsp), %xmm0
	movaps	%xmm0, 208(%rsp)
	movaps	32(%rsp), %xmm0
	movaps	48(%rsp), %xmm1
	movaps	64(%rsp), %xmm2
	movaps	80(%rsp), %xmm3
	movaps	%xmm3, 192(%rsp)
	movaps	%xmm2, 176(%rsp)
	movaps	%xmm1, 160(%rsp)
	movaps	%xmm0, 144(%rsp)
	callq	__$startup_runtime
	leaq	144(%rsp), %rsi
	movq	%rsi, %rcx
	callq	main.main
	movq	%rsi, %rcx
	callq	__$cleanup_runtime
	xorl	%eax, %eax
	addq	$264, %rsp
	popq	%rdi
	popq	%rsi
	retq
	.seh_endproc

	.def	runtime.default_temp_allocator_proc;
	.scl	3;
	.type	32;
	.endef
	.p2align	4, 0x90
runtime.default_temp_allocator_proc:
.seh_proc runtime.default_temp_allocator_proc
	pushq	%r15
	.seh_pushreg %r15
	pushq	%r14
	.seh_pushreg %r14
	pushq	%rsi
	.seh_pushreg %rsi
	pushq	%rdi
	.seh_pushreg %rdi
	pushq	%rbx
	.seh_pushreg %rbx
	subq	$112, %rsp
	.seh_stackalloc 112
	movaps	%xmm6, 96(%rsp)
	.seh_savexmm %xmm6, 96
	.seh_endprologue
	cmpb	$7, %dl
	ja	.LBB21_24
	movq	%rcx, %rdi
	movq	224(%rsp), %r15
	movq	208(%rsp), %rbx
	movq	192(%rsp), %rsi
	movzbl	%dl, %eax
	leaq	.LJTI21_0(%rip), %rcx
	movslq	(%rcx,%rax,4), %rax
	addq	%rcx, %rax
	jmpq	*%rax
.LBB21_2:
	testq	%rsi, %rsi
	je	.LBB21_6
	movq	200(%rsp), %r14
	cmpq	%r14, %r8
	jne	.LBB21_15
	testq	%r8, %r8
	jns	.LBB21_25
	leaq	.Lggv$bd(%rip), %rcx
	movl	$208, %edx
	jmp	.LBB21_35
.LBB21_6:
	xorps	%xmm0, %xmm0
	movaps	%xmm0, 80(%rsp)
	movq	%r15, 40(%rsp)
	leaq	80(%rsp), %rax
	movq	%rax, 32(%rsp)
	movq	%rdi, %rcx
	movq	%r8, %rdx
	movq	%r9, %r8
	movq	%rbx, %r9
	callq	runtime.arena_alloc
	movq	80(%rsp), %rsi
	movq	88(%rsp), %r8
	jmp	.LBB21_26
.LBB21_7:
	movq	16(%rdi), %rax
	testq	%rax, %rax
	je	.LBB21_23
	xorps	%xmm6, %xmm6
	leaq	80(%rsp), %rsi
	jmp	.LBB21_10
	.p2align	4, 0x90
.LBB21_9:
	movq	%rcx, %rax
	testq	%rcx, %rcx
	je	.LBB21_23
.LBB21_10:
	movq	(%rax), %rcx
	testq	%rcx, %rcx
	je	.LBB21_22
	movq	%rcx, 16(%rdi)
	movq	40(%rax), %rdx
	subq	%rdx, 32(%rdi)
	movq	8(%rax), %r10
	testq	%r10, %r10
	je	.LBB21_9
	movq	16(%rax), %rcx
	movaps	%xmm6, 80(%rsp)
	movq	%r15, 64(%rsp)
	movq	%rsi, 56(%rsp)
	movq	%rbx, 48(%rsp)
	movq	%rax, 32(%rsp)
	movq	$0, 40(%rsp)
	movb	$1, %dl
	xorl	%r8d, %r8d
	xorl	%r9d, %r9d
	callq	*%r10
	movq	16(%rdi), %rcx
	jmp	.LBB21_9
.LBB21_13:
	testq	%rsi, %rsi
	je	.LBB21_24
	movb	$93, (%rsi)
	jmp	.LBB21_24
.LBB21_15:
	testq	%r8, %r8
	je	.LBB21_20
	leaq	-1(%r9), %rax
	testq	%rsi, %rax
	jne	.LBB21_27
	cmpq	%r14, %r8
	jae	.LBB21_27
	testq	%r8, %r8
	jns	.LBB21_25
	leaq	.Lggv$bd(%rip), %rcx
	movl	$215, %edx
.LBB21_35:
	movq	%r8, %r9
	movl	$19, %r8d
	callq	runtime.multi_pointer_slice_handle_error
.LBB21_20:
	movb	$4, %al
.LBB21_21:
	xorl	%esi, %esi
	xorl	%r8d, %r8d
	jmp	.LBB21_26
.LBB21_22:
	movq	24(%rax), %rcx
	movq	32(%rax), %r8
	xorl	%edx, %edx
	callq	memset
	movq	16(%rdi), %rax
	movq	$0, 32(%rax)
.LBB21_23:
	movq	$0, 24(%rdi)
.LBB21_24:
	xorl	%esi, %esi
	xorl	%r8d, %r8d
.LBB21_25:
	xorl	%eax, %eax
.LBB21_26:
	movq	216(%rsp), %rcx
	movq	%rsi, (%rcx)
	movq	%r8, 8(%rcx)
	movaps	96(%rsp), %xmm6
	addq	$112, %rsp
	popq	%rbx
	popq	%rdi
	popq	%rsi
	popq	%r14
	popq	%r15
	retq
.LBB21_27:
	xorps	%xmm0, %xmm0
	movaps	%xmm0, 80(%rsp)
	movq	%r15, 40(%rsp)
	leaq	80(%rsp), %rax
	movq	%rax, 32(%rsp)
	movq	%rdi, %rcx
	movq	%r8, %rdx
	movq	%r9, %r8
	movq	%rbx, %r9
	callq	runtime.arena_alloc
	testb	%al, %al
	jne	.LBB21_21
	movq	80(%rsp), %rdi
	testq	%rdi, %rdi
	je	.LBB21_24
	testq	%r14, %r14
	js	.LBB21_36
	movq	88(%rsp), %r8
	cmpq	%r14, %r8
	cmovlq	%r8, %r14
	testq	%r14, %r14
	jle	.LBB21_32
	movq	%rdi, %rcx
	movq	%rsi, %rdx
	movq	%r8, %rsi
	movq	%r14, %r8
	callq	memmove
	movq	%rsi, %r8
.LBB21_32:
	xorl	%eax, %eax
	movq	%rdi, %rsi
	jmp	.LBB21_26
.LBB21_36:
	leaq	.Lggv$bd(%rip), %rcx
	movl	$223, %edx
	movl	$28, %r8d
	movq	%r14, %r9
	callq	runtime.multi_pointer_slice_handle_error
	int3
	.section	.rdata,"dr"
	.p2align	2, 0x0
.LJTI21_0:
	.long	.LBB21_6-.LJTI21_0
	.long	.LBB21_20-.LJTI21_0
	.long	.LBB21_7-.LJTI21_0
	.long	.LBB21_2-.LJTI21_0
	.long	.LBB21_13-.LJTI21_0
	.long	.LBB21_20-.LJTI21_0
	.long	.LBB21_6-.LJTI21_0
	.long	.LBB21_2-.LJTI21_0
	.text
	.seh_endproc

	.def	bufio.writer_flush;
	.scl	3;
	.type	32;
	.endef
	.p2align	4, 0x90
bufio.writer_flush:
.seh_proc bufio.writer_flush
	pushq	%r14
	.seh_pushreg %r14
	pushq	%rsi
	.seh_pushreg %rsi
	pushq	%rdi
	.seh_pushreg %rdi
	pushq	%rbx
	.seh_pushreg %rbx
	subq	$88, %rsp
	.seh_stackalloc 88
	.seh_endprologue
	movl	56(%rcx), %edi
	testl	%edi, %edi
	jne	.LBB22_16
	movq	48(%rcx), %r9
	testq	%r9, %r9
	je	.LBB22_2
	movq	8(%rcx), %rax
	cmpq	%rax, %r9
	jg	.LBB22_17
	movq	%rax, %r8
	orq	%r9, %r8
	js	.LBB22_17
	movq	(%rcx), %rax
	movq	%rax, 72(%rsp)
	movq	%r9, 80(%rsp)
	movq	32(%rcx), %r10
	testq	%r10, %r10
	je	.LBB22_18
	movq	40(%rcx), %rax
	movq	$0, 64(%rsp)
	movq	%rdx, 48(%rsp)
	leaq	64(%rsp), %rdx
	movq	%rdx, 40(%rsp)
	movq	$0, 32(%rsp)
	xorl	%edi, %edi
	leaq	72(%rsp), %r8
	movl	$4, %edx
	movq	%rcx, %r14
	movq	%rax, %rcx
	xorl	%r9d, %r9d
	callq	*%r10
	movq	%r14, %rcx
	movq	64(%rsp), %rsi
	movq	48(%r14), %r9
	cmpq	%rsi, %r9
	movl	$3, %ebx
	cmovlel	%eax, %ebx
	testl	%eax, %eax
	cmovnel	%eax, %ebx
	testl	%ebx, %ebx
	je	.LBB22_15
	testq	%rsi, %rsi
	jle	.LBB22_14
	movq	%r9, %r8
	subq	%rsi, %r8
	jle	.LBB22_14
	movq	8(%rcx), %rax
	js	.LBB22_19
	cmpq	%rax, %r8
	jg	.LBB22_19
	cmpq	%rax, %r9
	jg	.LBB22_20
	cmpq	%rax, %rsi
	jg	.LBB22_20
	movq	(%rcx), %rcx
	leaq	(%rcx,%rsi), %rdx
	callq	memmove
	movq	%r14, %rcx
	movq	48(%r14), %r9
	jmp	.LBB22_14
.LBB22_2:
	xorl	%edi, %edi
	jmp	.LBB22_16
.LBB22_18:
	movl	$-1, %ebx
	xorl	%esi, %esi
.LBB22_14:
	subq	%rsi, %r9
	movq	%r9, 48(%rcx)
	movl	%ebx, 56(%rcx)
	movl	%ebx, %edi
	jmp	.LBB22_16
.LBB22_15:
	movq	$0, 48(%rcx)
.LBB22_16:
	movl	%edi, %eax
	addq	$88, %rsp
	popq	%rbx
	popq	%rdi
	popq	%rsi
	popq	%r14
	retq
.LBB22_17:
	movq	%rax, 40(%rsp)
	movq	%r9, 32(%rsp)
	leaq	.Lggv$59(%rip), %rcx
	movl	$63, %edx
	movl	$32, %r8d
	xorl	%r9d, %r9d
	callq	runtime.slice_handle_error
.LBB22_19:
	movq	%rax, 40(%rsp)
	movq	%r8, 32(%rsp)
	leaq	.Lggv$59(%rip), %rcx
	movl	$69, %edx
	movl	$14, %r8d
	xorl	%r9d, %r9d
	callq	runtime.slice_handle_error
.LBB22_20:
	movq	%rax, 40(%rsp)
	movq	%r9, 32(%rsp)
	leaq	.Lggv$59(%rip), %rcx
	movl	$69, %edx
	movl	$29, %r8d
	movq	%rsi, %r9
	callq	runtime.slice_handle_error
	int3
	.seh_endproc

	.def	runtime.multi_pointer_slice_handle_error;
	.scl	3;
	.type	32;
	.endef
	.p2align	4, 0x90
runtime.multi_pointer_slice_handle_error:
.seh_proc runtime.multi_pointer_slice_handle_error
	pushq	%rsi
	.seh_pushreg %rsi
	subq	$80, %rsp
	.seh_stackalloc 80
	.seh_endprologue
	movq	%r9, %rsi
	xorps	%xmm0, %xmm0
	movups	%xmm0, 64(%rsp)
	movups	(%rcx), %xmm0
	movups	%xmm0, 40(%rsp)
	movl	%edx, 56(%rsp)
	movl	%r8d, 60(%rsp)
	leaq	40(%rsp), %rcx
	callq	runtime.print_caller_location
	leaq	.Lggv$45(%rip), %rcx
	callq	runtime.print_string
	xorl	%ecx, %ecx
	callq	runtime.print_i64
	leaq	.Lggv$46(%rip), %rcx
	callq	runtime.print_string
	movq	%rsi, %rcx
	callq	runtime.print_i64
	movb	$10, %cl
	callq	runtime.print_byte
	callq	runtime.bounds_trap
	int3
	.seh_endproc

	.def	strconv.append_bits;
	.scl	3;
	.type	32;
	.endef
	.p2align	4, 0x90
strconv.append_bits:
.seh_proc strconv.append_bits
	pushq	%rsi
	.seh_pushreg %rsi
	pushq	%rdi
	.seh_pushreg %rdi
	pushq	%rbx
	.seh_pushreg %rbx
	subq	$192, %rsp
	.seh_stackalloc 192
	.seh_endprologue
	movq	%r9, %r10
	movq	%r8, %rax
	movq	%rdx, %rdi
	movq	%rcx, %rsi
	movzbl	256(%rsp), %ecx
	xorps	%xmm0, %xmm0
	movaps	%xmm0, 160(%rsp)
	movaps	%xmm0, 144(%rsp)
	movaps	%xmm0, 128(%rsp)
	movaps	%xmm0, 112(%rsp)
	movaps	%xmm0, 96(%rsp)
	movaps	%xmm0, 80(%rsp)
	movaps	%xmm0, 64(%rsp)
	movaps	%xmm0, 48(%rsp)
	movb	$0, 176(%rsp)
	testb	%cl, %cl
	je	.LBB24_1
	movq	264(%rsp), %rcx
	addq	$-8, %rcx
	shldq	$61, %rcx, %rcx
	cmpq	$7, %rcx
	ja	.LBB24_8
	leaq	.LJTI24_0(%rip), %rdx
	movslq	(%rdx,%rcx,4), %rcx
	addq	%rdx, %rcx
	jmpq	*%rcx
.LBB24_4:
	movsbq	%al, %rdx
	shrb	$7, %al
	movl	%eax, %ecx
	jmp	.LBB24_5
.LBB24_1:
	xorl	%ecx, %ecx
	jmp	.LBB24_10
.LBB24_7:
	movq	%rax, %rcx
	shrq	$63, %rcx
	movq	%rax, %rdx
	negq	%rdx
	cmovnsq	%rdx, %rax
	jmp	.LBB24_10
.LBB24_6:
	movzwl	%ax, %ecx
	shrl	$15, %ecx
	movswq	%ax, %rdx
.LBB24_5:
	movq	%rdx, %rax
	negq	%rax
	cmovsq	%rdx, %rax
	jmp	.LBB24_10
.LBB24_9:
	movl	%eax, %ecx
	shrl	$31, %ecx
	movl	%eax, %edx
	negl	%edx
	cmovnsl	%edx, %eax
.LBB24_10:
	movq	272(%rsp), %r8
	cmpq	%r10, %rax
	jae	.LBB24_12
	movl	$129, %r11d
	movl	$128, %r9d
	leaq	176(%rsp), %rbx
	jmp	.LBB24_18
.LBB24_12:
	movl	$128, %r9d
	.p2align	4, 0x90
.LBB24_13:
	cmpq	$129, %r9
	jae	.LBB24_44
	movq	8(%r8), %r11
	xorl	%edx, %edx
	divq	%r10
	cmpq	%r11, %rdx
	jae	.LBB24_45
	movq	(%r8), %r11
	movzbl	(%r11,%rdx), %edx
	movb	%dl, 48(%rsp,%r9)
	decq	%r9
	cmpq	%r10, %rax
	jae	.LBB24_13
	cmpq	$129, %r9
	jae	.LBB24_46
	leaq	(%rsp,%r9), %rbx
	addq	$48, %rbx
	leaq	1(%r9), %r11
.LBB24_18:
	movq	8(%r8), %rdx
	cmpq	%rdx, %rax
	jae	.LBB24_47
	movzbl	280(%rsp), %edx
	movq	(%r8), %r8
	movzbl	(%r8,%rax), %eax
	movb	%al, (%rbx)
	testb	$1, %dl
	je	.LBB24_33
	addq	$-2, %r10
	shldq	$63, %r10, %r10
	cmpq	$7, %r10
	ja	.LBB24_33
	leaq	.LJTI24_1(%rip), %rax
	movslq	(%rax,%r10,4), %r8
	addq	%rax, %r8
	jmpq	*%r8
.LBB24_22:
	addq	$-2, %r11
	movb	$98, %al
	cmpq	$129, %r11
	jb	.LBB24_31
	movq	$129, 32(%rsp)
	leaq	.Lggv$a8(%rip), %rcx
	movl	$83, %edx
	jmp	.LBB24_24
.LBB24_27:
	addq	$-2, %r11
	movb	$122, %al
	cmpq	$129, %r11
	jb	.LBB24_31
	movq	$129, 32(%rsp)
	leaq	.Lggv$a8(%rip), %rcx
	movl	$86, %edx
	jmp	.LBB24_24
.LBB24_25:
	addq	$-2, %r11
	movb	$111, %al
	cmpq	$129, %r11
	jb	.LBB24_31
	movq	$129, 32(%rsp)
	leaq	.Lggv$a8(%rip), %rcx
	movl	$84, %edx
	jmp	.LBB24_24
.LBB24_29:
	addq	$-2, %r11
	movb	$120, %al
	cmpq	$129, %r11
	jae	.LBB24_30
.LBB24_31:
	movb	%al, 48(%rsp,%r11)
	movq	%r11, %r9
	decq	%r9
	cmpq	$129, %r9
	jae	.LBB24_48
	movb	$48, 48(%rsp,%r9)
.LBB24_33:
	testb	%cl, %cl
	je	.LBB24_34
	decq	%r9
	movb	$45, %al
	cmpq	$129, %r9
	jb	.LBB24_38
	movq	$129, 32(%rsp)
	leaq	.Lggv$a8(%rip), %rcx
	movl	$97, %edx
	movl	$11, %r8d
	callq	"runtime.bounds_check_error.handle_error-0"
.LBB24_34:
	testb	$2, %dl
	je	.LBB24_39
	decq	%r9
	movb	$43, %al
	cmpq	$129, %r9
	jae	.LBB24_36
.LBB24_38:
	movb	%al, 48(%rsp,%r9)
.LBB24_39:
	movl	$129, %ebx
	subq	%r9, %rbx
	movq	8(%rdi), %rax
	cmpq	%rbx, %rax
	movq	%rbx, %r8
	cmovlq	%rax, %r8
	testq	%r8, %r8
	jle	.LBB24_41
	leaq	(%rsp,%r9), %rdx
	addq	$48, %rdx
	movq	(%rdi), %rcx
	callq	memcpy
	movq	8(%rdi), %rax
.LBB24_41:
	testq	%rax, %rax
	js	.LBB24_49
	cmpq	%rax, %rbx
	jg	.LBB24_49
	movq	(%rdi), %rax
	movq	%rax, (%rsi)
	movq	%rbx, 8(%rsi)
	movq	%rsi, %rax
	addq	$192, %rsp
	popq	%rbx
	popq	%rdi
	popq	%rsi
	retq
.LBB24_45:
	movq	%r11, 32(%rsp)
	leaq	.Lggv$a8(%rip), %rcx
	movq	%rdx, %r9
	movl	$75, %edx
	movl	$23, %r8d
	callq	"runtime.bounds_check_error.handle_error-0"
.LBB24_44:
	movq	$129, 32(%rsp)
	leaq	.Lggv$a8(%rip), %rcx
	movl	$75, %edx
	movl	$11, %r8d
	callq	"runtime.bounds_check_error.handle_error-0"
.LBB24_47:
	movq	%rdx, 32(%rsp)
	leaq	.Lggv$a8(%rip), %rcx
	movl	$78, %edx
	movl	$22, %r8d
	movq	%rax, %r9
	callq	"runtime.bounds_check_error.handle_error-0"
.LBB24_49:
	movq	%rax, 40(%rsp)
	movq	%rbx, 32(%rsp)
	leaq	.Lggv$a8(%rip), %rcx
	movl	$104, %edx
	movl	$19, %r8d
	xorl	%r9d, %r9d
	callq	runtime.slice_handle_error
.LBB24_46:
	movq	$129, 32(%rsp)
	leaq	.Lggv$a8(%rip), %rcx
	movl	$78, %edx
	movl	$10, %r8d
	callq	"runtime.bounds_check_error.handle_error-0"
.LBB24_48:
	movq	$129, 32(%rsp)
	leaq	.Lggv$a8(%rip), %rcx
	movl	$91, %edx
	movl	$12, %r8d
	callq	"runtime.bounds_check_error.handle_error-0"
.LBB24_36:
	movq	$129, 32(%rsp)
	leaq	.Lggv$a8(%rip), %rcx
	movl	$99, %edx
	movl	$11, %r8d
	callq	"runtime.bounds_check_error.handle_error-0"
.LBB24_30:
	movq	$129, 32(%rsp)
	leaq	.Lggv$a8(%rip), %rcx
	movl	$87, %edx
.LBB24_24:
	movl	$20, %r8d
	movq	%r11, %r9
	callq	"runtime.bounds_check_error.handle_error-0"
.LBB24_8:
	movq	288(%rsp), %r9
	movq	32(%r9), %rax
	testq	%rax, %rax
	leaq	runtime.default_assertion_failure_proc(%rip), %r10
	cmovneq	%rax, %r10
	leaq	.Lggv$1bd(%rip), %rcx
	leaq	.Lggv$30(%rip), %rdx
	leaq	.Lggv$2f(%rip), %r8
	callq	*%r10
	int3
	.section	.rdata,"dr"
	.p2align	2, 0x0
.LJTI24_0:
	.long	.LBB24_4-.LJTI24_0
	.long	.LBB24_6-.LJTI24_0
	.long	.LBB24_8-.LJTI24_0
	.long	.LBB24_9-.LJTI24_0
	.long	.LBB24_8-.LJTI24_0
	.long	.LBB24_8-.LJTI24_0
	.long	.LBB24_8-.LJTI24_0
	.long	.LBB24_7-.LJTI24_0
.LJTI24_1:
	.long	.LBB24_22-.LJTI24_1
	.long	.LBB24_33-.LJTI24_1
	.long	.LBB24_33-.LJTI24_1
	.long	.LBB24_25-.LJTI24_1
	.long	.LBB24_33-.LJTI24_1
	.long	.LBB24_27-.LJTI24_1
	.long	.LBB24_33-.LJTI24_1
	.long	.LBB24_29-.LJTI24_1
	.text
	.seh_endproc

	.def	runtime.multi_pointer_slice_expr_error;
	.scl	3;
	.type	32;
	.endef
	.p2align	4, 0x90
runtime.multi_pointer_slice_expr_error:
.seh_proc runtime.multi_pointer_slice_expr_error
	subq	$40, %rsp
	.seh_stackalloc 40
	.seh_endprologue
	testq	%r9, %r9
	js	.LBB25_2
	addq	$40, %rsp
	retq
.LBB25_2:
	callq	runtime.multi_pointer_slice_handle_error
	int3
	.seh_endproc

	.def	runtime.encode_rune;
	.scl	3;
	.type	32;
	.endef
	.p2align	4, 0x90
runtime.encode_rune:
	cmpl	$2048, %ecx
	jae	.LBB26_2
	movl	%ecx, %r9d
	shrl	$6, %r9d
	orb	$-64, %r9b
	movl	$2, %eax
	xorl	%r8d, %r8d
	xorl	%r10d, %r10d
	jmp	.LBB26_5
.LBB26_2:
	movl	%ecx, %eax
	andl	$2095104, %eax
	cmpl	$55296, %eax
	movl	$65533, %eax
	movl	%ecx, %r8d
	cmovel	%eax, %r8d
	cmpl	$1114112, %ecx
	cmovael	%eax, %r8d
	movl	%r8d, %r9d
	cmpl	$65535, %ecx
	ja	.LBB26_4
	shrl	$12, %r9d
	orb	$-32, %r9b
	movl	%r8d, %ecx
	shrl	$6, %ecx
	andb	$63, %r8b
	orb	$-128, %r8b
	movl	$3, %eax
	xorl	%r10d, %r10d
	jmp	.LBB26_5
.LBB26_4:
	shrl	$18, %r9d
	orb	$-16, %r9b
	movl	%r8d, %ecx
	shrl	$12, %ecx
	movl	%r8d, %r11d
	shrl	$6, %r11d
	andb	$63, %r11b
	orb	$-128, %r11b
	andb	$63, %r8b
	movl	%r8d, %r10d
	orb	$-128, %r10b
	movl	$4, %eax
	movl	%r11d, %r8d
.LBB26_5:
	andb	$63, %cl
	orb	$-128, %cl
	movb	%r9b, (%rdx)
	movb	%cl, 1(%rdx)
	movb	%r8b, 2(%rdx)
	movb	%r10b, 3(%rdx)
	retq

	.def	utf8.decode_rune_in_bytes;
	.scl	3;
	.type	32;
	.endef
	.p2align	4, 0x90
utf8.decode_rune_in_bytes:
.seh_proc utf8.decode_rune_in_bytes
	pushq	%rsi
	.seh_pushreg %rsi
	pushq	%rdi
	.seh_pushreg %rdi
	pushq	%rbx
	.seh_pushreg %rbx
	subq	$48, %rsp
	.seh_stackalloc 48
	.seh_endprologue
	movq	8(%rcx), %r10
	movl	$65533, %r8d
	testq	%r10, %r10
	jle	.LBB27_1
	movq	(%rcx), %r11
	movzbl	(%r11), %ecx
	leaq	"runtime.string_decode_rune-.accept_sizes-28525"(%rip), %rax
	movzbl	(%rcx,%rax), %r9d
	leaq	-245(%rcx), %rax
	cmpq	$-52, %rax
	ja	.LBB27_5
	andl	$1, %r9d
	movl	%r9d, %r8d
	negl	%r8d
	decl	%r9d
	andl	%ecx, %r9d
	andl	$65533, %r8d
	orl	%r9d, %r8d
	movl	$1, %eax
	jmp	.LBB27_2
.LBB27_1:
	xorl	%eax, %eax
	jmp	.LBB27_2
.LBB27_5:
	movl	%r9d, %esi
	andl	$7, %esi
	movl	$1, %eax
	cmpq	%rsi, %r10
	jae	.LBB27_6
.LBB27_2:
	movl	%r8d, (%rdx)
	addq	$48, %rsp
	popq	%rbx
	popq	%rdi
	popq	%rsi
	retq
.LBB27_6:
	cmpq	$1, %r10
	je	.LBB27_18
	shrl	$4, %r9d
	leaq	utf8.accept_ranges(%rip), %rsi
	movzbl	1(%r11), %ebx
	cmpb	(%rsi,%r9,2), %bl
	jb	.LBB27_2
	cmpb	%bl, 1(%rsi,%r9,2)
	jb	.LBB27_2
	leaq	-194(%rcx), %rsi
	movzbl	%bl, %r9d
	cmpq	$29, %rsi
	ja	.LBB27_11
	andl	$31, %ecx
	shll	$6, %ecx
	andl	$63, %r9d
	orl	%ecx, %r9d
	movl	$2, %eax
	movl	%r9d, %r8d
	jmp	.LBB27_2
.LBB27_11:
	cmpq	$2, %r10
	jbe	.LBB27_19
	movzbl	2(%r11), %esi
	cmpb	$-65, %sil
	jg	.LBB27_2
	movl	%ecx, %edi
	andl	$-16, %edi
	cmpl	$224, %edi
	jne	.LBB27_15
	andl	$15, %ecx
	shll	$12, %ecx
	andl	$63, %r9d
	shll	$6, %r9d
	orl	%ecx, %r9d
	andl	$63, %esi
	orl	%r9d, %esi
	movl	$3, %eax
	movl	%esi, %r8d
	jmp	.LBB27_2
.LBB27_15:
	cmpq	$3, %r10
	je	.LBB27_20
	movzbl	3(%r11), %r10d
	cmpb	$-65, %r10b
	jg	.LBB27_2
	andl	$7, %ecx
	shll	$18, %ecx
	andl	$63, %r9d
	shll	$12, %r9d
	orl	%ecx, %r9d
	andl	$63, %esi
	shll	$6, %esi
	orl	%r9d, %esi
	andl	$63, %r10d
	orl	%esi, %r10d
	movl	$4, %eax
	movl	%r10d, %r8d
	jmp	.LBB27_2
.LBB27_18:
	movq	$1, 32(%rsp)
	leaq	.Lggv$10d(%rip), %rcx
	movl	$1, %r9d
	movl	$122, %edx
	movl	$10, %r8d
	callq	"runtime.bounds_check_error.handle_error-0"
.LBB27_19:
	movq	%r10, 32(%rsp)
	leaq	.Lggv$10d(%rip), %rcx
	movl	$2, %r9d
	movl	$129, %edx
	movl	$10, %r8d
	callq	"runtime.bounds_check_error.handle_error-0"
.LBB27_20:
	movq	$3, 32(%rsp)
	leaq	.Lggv$10d(%rip), %rcx
	movl	$3, %r9d
	movl	$136, %edx
	movl	$10, %r8d
	callq	"runtime.bounds_check_error.handle_error-0"
	int3
	.seh_endproc

	.def	runtime.arena_alloc;
	.scl	3;
	.type	32;
	.endef
	.p2align	4, 0x90
runtime.arena_alloc:
.seh_proc runtime.arena_alloc
	pushq	%r15
	.seh_pushreg %r15
	pushq	%r14
	.seh_pushreg %r14
	pushq	%r13
	.seh_pushreg %r13
	pushq	%r12
	.seh_pushreg %r12
	pushq	%rsi
	.seh_pushreg %rsi
	pushq	%rdi
	.seh_pushreg %rdi
	pushq	%rbx
	.seh_pushreg %rbx
	subq	$112, %rsp
	.seh_stackalloc 112
	movaps	%xmm6, 96(%rsp)
	.seh_savexmm %xmm6, 96
	.seh_endprologue
	movq	216(%rsp), %rsi
	leaq	-1(%r8), %rbx
	testq	%rbx, %r8
	jne	.LBB28_27
	movq	208(%rsp), %rdi
	testq	%rdx, %rdx
	je	.LBB28_2
	movq	%rbx, %rax
	andq	%rdx, %rax
	movq	%r8, %r14
	subq	%rax, %r14
	testq	%rax, %rax
	cmoveq	%rax, %r14
	addq	%rdx, %r14
	movq	16(%rcx), %r10
	testq	%r10, %r10
	je	.LBB28_6
	movq	32(%r10), %r11
	movq	%r11, %rax
	addq	%r14, %rax
	jb	.LBB28_20
	cmpq	40(%r10), %rax
	jbe	.LBB28_20
.LBB28_6:
	movq	40(%rcx), %rax
	testq	%rax, %rax
	jne	.LBB28_8
	movq	$4194304, 40(%rcx)
	movl	$4194304, %eax
.LBB28_8:
	cmpq	%rax, %r14
	cmovaq	%r14, %rax
	movq	(%rcx), %r11
	testq	%r11, %r11
	jne	.LBB28_10
	leaq	runtime.heap_allocator_proc(%rip), %r11
	movq	%r11, (%rcx)
	movq	$0, 8(%rcx)
.LBB28_10:
	cmpq	$49, %r8
	movl	$48, %r14d
	cmovaeq	%r8, %r14
	addq	%r14, %rax
	je	.LBB28_11
	movq	%rdx, %r15
	cmpq	$17, %r8
	movl	$16, %r10d
	movq	%r8, %r12
	cmovgeq	%r8, %r10
	movq	%rcx, %r13
	movq	8(%rcx), %rcx
	xorps	%xmm6, %xmm6
	movaps	%xmm6, 80(%rsp)
	movq	%rsi, 64(%rsp)
	leaq	80(%rsp), %rdx
	movq	%rdx, 56(%rsp)
	movq	%r9, 48(%rsp)
	movups	%xmm6, 32(%rsp)
	xorl	%edx, %edx
	movq	%rax, %r8
	movq	%r10, %r9
	callq	*%r11
	testb	%al, %al
	je	.LBB28_13
	movups	%xmm6, (%rdi)
	jmp	.LBB28_18
.LBB28_2:
	xorps	%xmm0, %xmm0
	movups	%xmm0, (%rdi)
	xorl	%eax, %eax
	jmp	.LBB28_18
.LBB28_11:
	xorl	%eax, %eax
	xorl	%r10d, %r10d
	jmp	.LBB28_14
.LBB28_13:
	movq	80(%rsp), %r10
	movq	88(%rsp), %rax
	movq	%r13, %rcx
	movq	(%r13), %r11
	movq	%r15, %rdx
	movq	%r12, %r8
.LBB28_14:
	addq	%r10, %rax
	movq	8(%rcx), %r9
	movq	%r11, 8(%r10)
	movq	%r9, 16(%r10)
	addq	%r10, %r14
	movq	%r14, 24(%r10)
	subq	%r14, %rax
	movq	%rax, 40(%r10)
	cmpq	$0, 32(%r10)
	jne	.LBB28_28
	cmpq	$0, (%r10)
	jne	.LBB28_16
	movq	16(%rcx), %rax
	movq	%rax, (%r10)
	movq	%r10, 16(%rcx)
	movq	40(%r10), %rax
	addq	%rax, 32(%rcx)
	movq	32(%r10), %r11
.LBB28_20:
	movq	24(%r10), %r9
	addq	%r11, %r9
	andq	%r9, %rbx
	subq	%rbx, %r8
	testq	%rbx, %rbx
	cmoveq	%rbx, %r8
	xorl	%esi, %esi
	movq	%rdx, %rbx
	movb	$1, %al
	addq	%r8, %rbx
	jb	.LBB28_21
	xorl	%esi, %esi
	addq	%r11, %rbx
	jae	.LBB28_23
.LBB28_21:
	movq	%r11, %r14
	xorl	%r15d, %r15d
.LBB28_26:
	subq	%r11, %r14
	addq	%r14, 24(%rcx)
	movq	%rsi, (%rdi)
	movq	%r15, 8(%rdi)
.LBB28_18:
	movaps	96(%rsp), %xmm6
	addq	$112, %rsp
	popq	%rbx
	popq	%rdi
	popq	%rsi
	popq	%r12
	popq	%r13
	popq	%r14
	popq	%r15
	retq
.LBB28_23:
	xorl	%esi, %esi
	movq	%r11, %r14
	movl	$0, %r15d
	cmpq	40(%r10), %rbx
	ja	.LBB28_26
	testq	%rdx, %rdx
	js	.LBB28_29
	addq	%r8, %r9
	movq	%rbx, 32(%r10)
	movq	16(%rcx), %rax
	movq	32(%rax), %r14
	xorl	%eax, %eax
	movq	%r9, %rsi
	movq	%rdx, %r15
	jmp	.LBB28_26
.LBB28_29:
	leaq	.Lggv$bd(%rip), %rcx
	movq	%rdx, %r9
	movl	$85, %edx
	movl	$49, %r8d
	callq	runtime.multi_pointer_slice_handle_error
.LBB28_27:
	movq	32(%rsi), %rax
	testq	%rax, %rax
	leaq	runtime.default_assertion_failure_proc(%rip), %r10
	cmovneq	%rax, %r10
	leaq	.Lggv$267(%rip), %rcx
	leaq	.Lggv$6e(%rip), %rdx
	movq	%r9, %r8
	movq	%rsi, %r9
	callq	*%r10
.LBB28_28:
	movq	32(%rsi), %rax
	testq	%rax, %rax
	leaq	runtime.default_assertion_failure_proc(%rip), %r10
	cmovneq	%rax, %r10
	leaq	.Lggv$267(%rip), %rcx
	leaq	.Lggv$24c(%rip), %rdx
	leaq	.Lggv$36(%rip), %r8
	movq	%rsi, %r9
	callq	*%r10
.LBB28_16:
	movq	32(%rsi), %rax
	testq	%rax, %rax
	leaq	runtime.default_assertion_failure_proc(%rip), %r10
	cmovneq	%rax, %r10
	leaq	.Lggv$267(%rip), %rcx
	leaq	.Lggv$24c(%rip), %rdx
	leaq	.Lggv$38(%rip), %r8
	movq	%rsi, %r9
	callq	*%r10
	int3
	.seh_endproc

	.def	runtime.print_string;
	.scl	3;
	.type	32;
	.endef
	.p2align	4, 0x90
runtime.print_string:
.seh_proc runtime.print_string
	subq	$40, %rsp
	.seh_stackalloc 40
	.seh_endprologue
	movq	$0, 32(%rsp)
	leaq	32(%rsp), %rdx
	callq	runtime.stderr_write
	nop
	addq	$40, %rsp
	retq
	.seh_endproc

	.def	runtime.print_byte;
	.scl	3;
	.type	32;
	.endef
	.p2align	4, 0x90
runtime.print_byte:
.seh_proc runtime.print_byte
	subq	$72, %rsp
	.seh_stackalloc 72
	.seh_endprologue
	xorps	%xmm0, %xmm0
	movaps	%xmm0, 48(%rsp)
	movb	%cl, 32(%rsp)
	leaq	32(%rsp), %rax
	movq	%rax, 48(%rsp)
	movq	$1, 56(%rsp)
	movq	$0, 40(%rsp)
	leaq	48(%rsp), %rcx
	leaq	40(%rsp), %rdx
	callq	runtime.stderr_write
	movq	40(%rsp), %rax
	addq	$72, %rsp
	retq
	.seh_endproc

	.def	strconv.format_digits;
	.scl	3;
	.type	32;
	.endef
	.p2align	4, 0x90
strconv.format_digits:
.seh_proc strconv.format_digits
	pushq	%r15
	.seh_pushreg %r15
	pushq	%r14
	.seh_pushreg %r14
	pushq	%r13
	.seh_pushreg %r13
	pushq	%r12
	.seh_pushreg %r12
	pushq	%rsi
	.seh_pushreg %rsi
	pushq	%rdi
	.seh_pushreg %rdi
	pushq	%rbp
	.seh_pushreg %rbp
	pushq	%rbx
	.seh_pushreg %rbx
	subq	$136, %rsp
	.seh_stackalloc 136
	.seh_endprologue
	movq	%rcx, %rsi
	movzbl	256(%rsp), %r15d
	movq	(%rdx), %rdi
	movq	8(%rdx), %r12
	movl	%r15d, %eax
	addl	$-69, %eax
	cmpl	$34, %eax
	ja	.LBB31_100
	movq	248(%rsp), %rbp
	movq	240(%rsp), %r13
	movabsq	$4294967297, %rcx
	btq	%rax, %rcx
	jb	.LBB31_46
	movabsq	$8589934594, %rcx
	btq	%rax, %rcx
	jb	.LBB31_7
	movabsq	$17179869188, %rcx
	btq	%rax, %rcx
	jae	.LBB31_100
	movq	16(%r13), %rax
	movq	24(%r13), %rcx
	cmpq	%rcx, %rax
	movq	%rax, %r11
	cmovlq	%rbp, %r11
	cmpq	%rbp, %rax
	cmovgeq	%rbp, %r11
	testb	%r8b, %r8b
	movl	$6, %r10d
	cmoveq	%r11, %r10
	leaq	-1(%rcx), %r11
	cmpq	$-4, %r11
	jl	.LBB31_6
	cmpq	%r10, %r11
	jge	.LBB31_6
	cmpq	%rbp, %rcx
	cmovgeq	%rbp, %rax
	subq	%rcx, %rax
	xorl	%ecx, %ecx
	testq	%rax, %rax
	cmovgq	%rax, %rcx
	xorps	%xmm0, %xmm0
	movaps	%xmm0, 96(%rsp)
	movq	%r13, 32(%rsp)
	movq	%rcx, 40(%rsp)
	movb	$102, 48(%rsp)
	leaq	96(%rsp), %rcx
	callq	strconv.format_digits
	movaps	96(%rsp), %xmm0
	movups	%xmm0, (%rsi)
	jmp	.LBB31_98
.LBB31_7:
	addb	%r9b, %r9b
	addb	$43, %r9b
	movw	$0, 64(%rsp)
	movb	$0, 66(%rsp)
	movb	%r9b, 64(%rsp)
	testq	%r12, %r12
	js	.LBB31_104
	movl	$1, %r14d
	cmovleq	%r12, %r14
	je	.LBB31_10
	leaq	64(%rsp), %rdx
	movq	%rdi, %rcx
	movq	%r14, %r8
	callq	memcpy
.LBB31_10:
	movq	24(%r13), %rax
	testq	%rax, %rax
	movq	%rsi, 80(%rsp)
	jle	.LBB31_23
	movq	8(%r13), %rcx
	movq	16(%r13), %rdx
	cmpq	%rax, %rdx
	movq	%rax, %rsi
	cmovlq	%rdx, %rsi
	testq	%rcx, %rcx
	js	.LBB31_105
	testq	%rdx, %rdx
	js	.LBB31_105
	cmpq	%rcx, %rsi
	jg	.LBB31_105
	movq	%r12, %rcx
	subq	%r14, %rcx
	cmpq	%rsi, %rcx
	cmovgeq	%rsi, %rcx
	xorl	%ebx, %ebx
	testq	%rcx, %rcx
	cmovgq	%rcx, %rbx
	jle	.LBB31_16
	movq	(%r13), %rdx
	leaq	(%rdi,%r14), %rcx
	movq	%rbx, %r8
	callq	memmove
	movq	24(%r13), %rax
.LBB31_16:
	addq	%r14, %rbx
	cmpq	%rax, %rsi
	jge	.LBB31_26
	leaq	64(%rsp), %r14
	jmp	.LBB31_18
	.p2align	4, 0x90
.LBB31_22:
	addq	%r15, %rbx
	incq	%rsi
	cmpq	%rax, %rsi
	jge	.LBB31_26
.LBB31_18:
	movb	$48, 64(%rsp)
	testq	%rbx, %rbx
	js	.LBB31_86
	movq	%r12, %rcx
	subq	%rbx, %rcx
	jl	.LBB31_86
	xorl	%r15d, %r15d
	testq	%rcx, %rcx
	setg	%r15b
	jle	.LBB31_22
	leaq	(%rdi,%rbx), %rcx
	movq	%r14, %rdx
	movq	%r15, %r8
	callq	memcpy
	movq	24(%r13), %rax
	jmp	.LBB31_22
.LBB31_46:
	addb	%r9b, %r9b
	addb	$43, %r9b
	movb	%r9b, 64(%rsp)
	testq	%r12, %r12
	js	.LBB31_104
	movl	$1, %ebx
	cmovleq	%r12, %rbx
	je	.LBB31_49
	leaq	64(%rsp), %rdx
	movq	%rdi, %rcx
	movq	%rbx, %r8
	callq	memcpy
.LBB31_49:
	cmpq	$0, 16(%r13)
	je	.LBB31_50
	cmpq	$0, 8(%r13)
	je	.LBB31_107
	movq	(%r13), %rax
	movzbl	(%rax), %eax
	jmp	.LBB31_53
.LBB31_6:
	cmpq	%rbp, %rax
	cmovlq	%rax, %rbp
	decq	%rbp
	leal	-2(%r15), %eax
	xorps	%xmm0, %xmm0
	movaps	%xmm0, 112(%rsp)
	movb	%al, 48(%rsp)
	movq	%rbp, 40(%rsp)
	movq	%r13, 32(%rsp)
	leaq	112(%rsp), %rcx
	callq	strconv.format_digits
	movaps	112(%rsp), %xmm0
	movups	%xmm0, (%rsi)
	jmp	.LBB31_98
.LBB31_100:
	movb	$37, 64(%rsp)
	movb	%r15b, 65(%rsp)
	testq	%r12, %r12
	js	.LBB31_104
	cmpq	$2, %r12
	movl	$2, %ebx
	cmovlq	%r12, %rbx
	testq	%r12, %r12
	je	.LBB31_103
	leaq	64(%rsp), %rdx
	movq	%rdi, %rcx
	movq	%rbx, %r8
	callq	memcpy
	jmp	.LBB31_103
.LBB31_23:
	movq	%r12, %rax
	subq	%r14, %rax
	xorl	%ebx, %ebx
	testq	%rax, %rax
	setg	%bl
	movb	$48, 64(%rsp)
	cmpq	%r14, %r12
	jle	.LBB31_25
	leaq	(%rdi,%r14), %rcx
	leaq	64(%rsp), %rdx
	movq	%rbx, %r8
	callq	memcpy
.LBB31_25:
	addq	%rbx, %r14
	movq	%r14, %rbx
.LBB31_26:
	testq	%rbp, %rbp
	jle	.LBB31_41
	movb	$46, 64(%rsp)
	testq	%rbx, %rbx
	js	.LBB31_86
	movq	%r12, %rax
	subq	%rbx, %rax
	jl	.LBB31_86
	xorl	%r14d, %r14d
	testq	%rax, %rax
	setg	%r14b
	jle	.LBB31_31
	leaq	(%rdi,%rbx), %rcx
	leaq	64(%rsp), %rdx
	movq	%r14, %r8
	callq	memcpy
.LBB31_31:
	addq	%r14, %rbx
	xorl	%esi, %esi
	leaq	64(%rsp), %r14
	jmp	.LBB31_32
	.p2align	4, 0x90
.LBB31_40:
	addq	%r15, %rbx
	incq	%rsi
	cmpq	%rsi, %rbp
	je	.LBB31_41
.LBB31_32:
	movq	24(%r13), %rax
	movq	%rsi, %r9
	addq	%rax, %r9
	movb	$48, %cl
	js	.LBB31_36
	cmpq	16(%r13), %r9
	jge	.LBB31_36
	movq	8(%r13), %rcx
	cmpq	%rcx, %r9
	jae	.LBB31_106
	addq	(%r13), %rax
	movzbl	(%rsi,%rax), %ecx
.LBB31_36:
	movb	%cl, 64(%rsp)
	testq	%rbx, %rbx
	js	.LBB31_86
	movq	%r12, %rax
	subq	%rbx, %rax
	jl	.LBB31_86
	xorl	%r15d, %r15d
	testq	%rax, %rax
	setg	%r15b
	jle	.LBB31_40
	leaq	(%rdi,%rbx), %rcx
	movq	%r14, %rdx
	movq	%r15, %r8
	callq	memcpy
	jmp	.LBB31_40
.LBB31_41:
	testq	%rbx, %rbx
	js	.LBB31_43
	cmpq	%r12, %rbx
	jg	.LBB31_43
	movq	80(%rsp), %rsi
.LBB31_103:
	movq	%rdi, (%rsi)
	movq	%rbx, 8(%rsi)
	jmp	.LBB31_98
.LBB31_50:
	movb	$48, %al
.LBB31_53:
	movq	%r12, %rcx
	subq	%rbx, %rcx
	xorl	%r14d, %r14d
	testq	%rcx, %rcx
	setg	%r14b
	movb	%al, 64(%rsp)
	cmpq	%rbx, %r12
	jle	.LBB31_55
	leaq	(%rdi,%rbx), %rcx
	leaq	64(%rsp), %rdx
	movq	%r14, %r8
	callq	memcpy
.LBB31_55:
	addq	%r14, %rbx
	testq	%rbp, %rbp
	movq	%rsi, 80(%rsp)
	movq	%r15, 88(%rsp)
	jle	.LBB31_73
	movb	$46, 64(%rsp)
	movq	%r12, %rax
	subq	%rbx, %rax
	jb	.LBB31_86
	xorl	%r14d, %r14d
	testq	%rax, %rax
	setg	%r14b
	cmpq	%rbx, %r12
	jle	.LBB31_59
	leaq	(%rdi,%rbx), %rcx
	leaq	64(%rsp), %rdx
	movq	%r14, %r8
	callq	memcpy
.LBB31_59:
	addq	%r14, %rbx
	leaq	1(%rbp), %rsi
	movq	16(%r13), %rax
	cmpq	%rsi, %rax
	cmovlq	%rax, %rsi
	cmpq	$2, %rsi
	jl	.LBB31_60
	movq	8(%r13), %rax
	cmpq	%rax, %rsi
	jg	.LBB31_108
	movq	%r12, %rax
	subq	%rbx, %rax
	jb	.LBB31_86
	leaq	-1(%rsi), %rcx
	cmpq	%rcx, %rax
	cmovlq	%rax, %rcx
	xorl	%r14d, %r14d
	testq	%rcx, %rcx
	cmovgq	%rcx, %r14
	jle	.LBB31_65
	movq	(%r13), %rdx
	incq	%rdx
	leaq	(%rdi,%rbx), %rcx
	movq	%r14, %r8
	callq	memmove
.LBB31_65:
	addq	%r14, %rbx
	cmpq	%rbp, %rsi
	ja	.LBB31_73
	jmp	.LBB31_67
.LBB31_60:
	movl	$1, %esi
	cmpq	%rbp, %rsi
	jbe	.LBB31_67
.LBB31_73:
	movq	88(%rsp), %rax
	movb	%al, 64(%rsp)
	testq	%rbx, %rbx
	js	.LBB31_86
	movq	%r12, %rax
	subq	%rbx, %rax
	jl	.LBB31_86
	xorl	%r15d, %r15d
	testq	%rax, %rax
	setg	%r15b
	movq	80(%rsp), %rsi
	jle	.LBB31_77
	leaq	(%rdi,%rbx), %rcx
	leaq	64(%rsp), %rdx
	movq	%r15, %r8
	callq	memcpy
.LBB31_77:
	movq	16(%r13), %rax
	movq	24(%r13), %rcx
	decq	%rcx
	testq	%rax, %rax
	cmoveq	%rax, %rcx
	movq	%rcx, %rax
	shrq	$63, %rax
	addb	%al, %al
	addb	$43, %al
	movq	%rcx, %r14
	negq	%r14
	cmovsq	%rcx, %r14
	addq	%r15, %rbx
	movb	%al, 64(%rsp)
	js	.LBB31_86
	movq	%r12, %rax
	subq	%rbx, %rax
	jl	.LBB31_86
	xorl	%r15d, %r15d
	testq	%rax, %rax
	setg	%r15b
	jle	.LBB31_81
	leaq	(%rdi,%rbx), %rcx
	leaq	64(%rsp), %rdx
	movq	%r15, %r8
	callq	memcpy
.LBB31_81:
	addq	%r15, %rbx
	cmpq	$10, %r14
	jge	.LBB31_82
	addb	$48, %r14b
	movb	$48, 64(%rsp)
	jmp	.LBB31_84
.LBB31_82:
	cmpq	$100, %r14
	jae	.LBB31_89
	movzbl	%r14b, %eax
	imull	$205, %eax, %eax
	shrl	$11, %eax
	movl	%eax, %ecx
	orb	$48, %cl
	addl	%eax, %eax
	leal	(%rax,%rax,4), %eax
	subb	%al, %r14b
	orb	$48, %r14b
	movb	%cl, 64(%rsp)
.LBB31_84:
	movb	%r14b, 65(%rsp)
	testq	%rbx, %rbx
	js	.LBB31_86
	movq	%r12, %rax
	subq	%rbx, %rax
	jl	.LBB31_86
	cmpq	$2, %rax
	movl	$2, %ecx
	jmp	.LBB31_92
.LBB31_67:
	leaq	64(%rsp), %r14
	jmp	.LBB31_68
	.p2align	4, 0x90
.LBB31_72:
	addq	%r15, %rbx
	incq	%rsi
	cmpq	%rbp, %rsi
	jg	.LBB31_73
.LBB31_68:
	movb	$48, 64(%rsp)
	testq	%rbx, %rbx
	js	.LBB31_86
	movq	%r12, %rax
	subq	%rbx, %rax
	jl	.LBB31_86
	xorl	%r15d, %r15d
	testq	%rax, %rax
	setg	%r15b
	jle	.LBB31_72
	leaq	(%rdi,%rbx), %rcx
	movq	%r14, %rdx
	movq	%r15, %r8
	callq	memcpy
	jmp	.LBB31_72
.LBB31_89:
	movq	%r14, %rax
	shrq	$2, %rax
	movabsq	$2951479051793528259, %rcx
	mulq	%rcx
	movq	%rdx, %rcx
	shrl	$2, %ecx
	addb	$48, %cl
	movabsq	$-3689348814741910323, %rdx
	movq	%r14, %rax
	mulq	%rdx
	shrq	$3, %rdx
	movzbl	%dl, %eax
	imull	$205, %eax, %eax
	shrl	$10, %eax
	andl	$-2, %eax
	leal	(%rax,%rax,4), %eax
	movl	%edx, %r8d
	subb	%al, %r8b
	orb	$48, %r8b
	addl	%edx, %edx
	leal	(%rdx,%rdx,4), %eax
	subl	%eax, %r14d
	orb	$48, %r14b
	movb	%cl, 64(%rsp)
	movb	%r8b, 65(%rsp)
	movb	%r14b, 66(%rsp)
	testq	%rbx, %rbx
	js	.LBB31_86
	movq	%r12, %rax
	subq	%rbx, %rax
	jl	.LBB31_86
	cmpq	$3, %rax
	movl	$3, %ecx
.LBB31_92:
	cmovlq	%rax, %rcx
	xorl	%r14d, %r14d
	testq	%rcx, %rcx
	cmovgq	%rcx, %r14
	testq	%rax, %rax
	jle	.LBB31_94
	leaq	(%rdi,%rbx), %rcx
	leaq	64(%rsp), %rdx
	movq	%r14, %r8
	callq	memcpy
.LBB31_94:
	addq	%rbx, %r14
	js	.LBB31_96
	cmpq	%r12, %r14
	jg	.LBB31_96
	movq	%rdi, (%rsi)
	movq	%r14, 8(%rsi)
.LBB31_98:
	movq	%rsi, %rax
	addq	$136, %rsp
	popq	%rbx
	popq	%rbp
	popq	%rdi
	popq	%rsi
	popq	%r12
	popq	%r13
	popq	%r14
	popq	%r15
	retq
.LBB31_86:
	movq	%r12, 40(%rsp)
	movq	%r12, 32(%rsp)
	leaq	.Lggv$257(%rip), %rcx
	movl	$146, %edx
	movl	$22, %r8d
	movq	%rbx, %r9
	callq	runtime.slice_handle_error
.LBB31_106:
	movq	%rcx, 32(%rsp)
	leaq	.Lggv$257(%rip), %rcx
	movl	$174, %edx
	movl	$22, %r8d
	callq	"runtime.bounds_check_error.handle_error-0"
.LBB31_104:
	movq	%r12, 40(%rsp)
	movq	%r12, 32(%rsp)
	leaq	.Lggv$257(%rip), %rcx
	movl	$146, %edx
	movl	$22, %r8d
	xorl	%r9d, %r9d
	callq	runtime.slice_handle_error
.LBB31_96:
	movq	%r12, 40(%rsp)
	movq	%r14, 32(%rsp)
	jmp	.LBB31_44
.LBB31_43:
	movq	%r12, 40(%rsp)
	movq	%rbx, 32(%rsp)
.LBB31_44:
	leaq	.Lggv$257(%rip), %rcx
	movl	$143, %edx
	movl	$13, %r8d
	xorl	%r9d, %r9d
	callq	runtime.slice_handle_error
.LBB31_107:
	movq	$0, 32(%rsp)
	leaq	.Lggv$257(%rip), %rcx
	movl	$186, %edx
	movl	$21, %r8d
	xorl	%r9d, %r9d
	callq	"runtime.bounds_check_error.handle_error-0"
.LBB31_105:
	movq	%rcx, 40(%rsp)
	movq	%rsi, 32(%rsp)
	leaq	.Lggv$257(%rip), %rcx
	movl	$159, %edx
	movl	$31, %r8d
	xorl	%r9d, %r9d
	callq	runtime.slice_handle_error
.LBB31_108:
	movq	%rax, 40(%rsp)
	movq	%rsi, 32(%rsp)
	leaq	.Lggv$257(%rip), %rcx
	movl	$1, %r9d
	movl	$195, %edx
	movl	$32, %r8d
	callq	runtime.slice_handle_error
	int3
	.seh_endproc

	.def	runtime.print_encoded_rune;
	.scl	3;
	.type	32;
	.endef
	.p2align	4, 0x90
runtime.print_encoded_rune:
.seh_proc runtime.print_encoded_rune
	pushq	%r14
	.seh_pushreg %r14
	pushq	%rsi
	.seh_pushreg %rsi
	pushq	%rdi
	.seh_pushreg %rdi
	pushq	%rbx
	.seh_pushreg %rbx
	subq	$40, %rsp
	.seh_stackalloc 40
	.seh_endprologue
	movl	%ecx, %esi
	movb	$39, %cl
	callq	runtime.print_byte
	leal	-7(%rsi), %eax
	cmpl	$20, %eax
	ja	.LBB32_10
	leaq	.LJTI32_0(%rip), %rcx
	movslq	(%rcx,%rax,4), %rax
	addq	%rcx, %rax
	jmpq	*%rax
.LBB32_2:
	leaq	.Lggv$aa(%rip), %rcx
	callq	runtime.print_string
	jmp	.LBB32_15
.LBB32_10:
	testl	%esi, %esi
	jle	.LBB32_11
	cmpl	$31, %esi
	ja	.LBB32_14
	movzbl	%sil, %edi
	shrl	$4, %edi
	andl	$15, %esi
	leaq	.Lggv$89(%rip), %rcx
	callq	runtime.print_string
	movq	$36, 32(%rsp)
	leaq	.Lggv$f8(%rip), %rbx
	movq	%rbx, %rcx
	movl	$164, %edx
	movl	$35, %r8d
	movq	%rdi, %r9
	callq	runtime.bounds_check_error
	leaq	.Lcsbs$4(%rip), %r14
	movzbl	(%rdi,%r14), %ecx
	callq	runtime.print_byte
	movq	$36, 32(%rsp)
	movq	%rbx, %rcx
	movl	$165, %edx
	movl	$35, %r8d
	movq	%rsi, %r9
	callq	runtime.bounds_check_error
	movzbl	(%rsi,%r14), %ecx
	callq	runtime.print_byte
	jmp	.LBB32_15
.LBB32_5:
	leaq	.Lggv$ad(%rip), %rcx
	callq	runtime.print_string
	jmp	.LBB32_15
.LBB32_3:
	leaq	.Lggv$ab(%rip), %rcx
	callq	runtime.print_string
	jmp	.LBB32_15
.LBB32_7:
	leaq	.Lggv$af(%rip), %rcx
	callq	runtime.print_string
	jmp	.LBB32_15
.LBB32_4:
	leaq	.Lggv$ac(%rip), %rcx
	callq	runtime.print_string
	jmp	.LBB32_15
.LBB32_8:
	leaq	.Lggv$b0(%rip), %rcx
	callq	runtime.print_string
	jmp	.LBB32_15
.LBB32_6:
	leaq	.Lggv$ae(%rip), %rcx
	callq	runtime.print_string
	jmp	.LBB32_15
.LBB32_9:
	leaq	.Lggv$b1(%rip), %rcx
	callq	runtime.print_string
	jmp	.LBB32_15
.LBB32_11:
	leaq	.Lggv$7d(%rip), %rcx
	callq	runtime.print_string
	jmp	.LBB32_15
.LBB32_14:
	movl	%esi, %ecx
	callq	runtime.print_rune
.LBB32_15:
	movb	$39, %cl
	addq	$40, %rsp
	popq	%rbx
	popq	%rdi
	popq	%rsi
	popq	%r14
	jmp	runtime.print_byte
	.section	.rdata,"dr"
	.p2align	2, 0x0
.LJTI32_0:
	.long	.LBB32_2-.LJTI32_0
	.long	.LBB32_3-.LJTI32_0
	.long	.LBB32_8-.LJTI32_0
	.long	.LBB32_6-.LJTI32_0
	.long	.LBB32_9-.LJTI32_0
	.long	.LBB32_5-.LJTI32_0
	.long	.LBB32_7-.LJTI32_0
	.long	.LBB32_10-.LJTI32_0
	.long	.LBB32_10-.LJTI32_0
	.long	.LBB32_10-.LJTI32_0
	.long	.LBB32_10-.LJTI32_0
	.long	.LBB32_10-.LJTI32_0
	.long	.LBB32_10-.LJTI32_0
	.long	.LBB32_10-.LJTI32_0
	.long	.LBB32_10-.LJTI32_0
	.long	.LBB32_10-.LJTI32_0
	.long	.LBB32_10-.LJTI32_0
	.long	.LBB32_10-.LJTI32_0
	.long	.LBB32_10-.LJTI32_0
	.long	.LBB32_10-.LJTI32_0
	.long	.LBB32_4-.LJTI32_0
	.text
	.seh_endproc

	.def	io.write_encoded_rune;
	.scl	3;
	.type	32;
	.endef
	.p2align	4, 0x90
io.write_encoded_rune:
.seh_proc io.write_encoded_rune
	pushq	%r15
	.seh_pushreg %r15
	pushq	%r14
	.seh_pushreg %r14
	pushq	%r12
	.seh_pushreg %r12
	pushq	%rsi
	.seh_pushreg %rsi
	pushq	%rdi
	.seh_pushreg %rdi
	pushq	%rbp
	.seh_pushreg %rbp
	pushq	%rbx
	.seh_pushreg %rbx
	subq	$192, %rsp
	.seh_stackalloc 192
	.seh_endprologue
	movq	%r9, %rsi
	movl	%r8d, %ebp
	movl	%edx, %r14d
	movq	%rcx, %rbx
	movq	296(%rsp), %rdi
	movq	288(%rsp), %r15
	movq	$0, 80(%rsp)
	testb	%r8b, %r8b
	je	.LBB33_3
	movb	$39, 95(%rsp)
	leaq	95(%rsp), %rax
	movq	%rax, 96(%rsp)
	movq	$1, 104(%rsp)
	movq	(%rbx), %rax
	testq	%rax, %rax
	je	.LBB33_8
	movq	8(%rbx), %rcx
	movq	$0, 120(%rsp)
	movq	%rdi, 48(%rsp)
	leaq	120(%rsp), %rdx
	movq	%rdx, 40(%rsp)
	movq	$0, 32(%rsp)
	leaq	96(%rsp), %r8
	movl	$4, %edx
	xorl	%r9d, %r9d
	callq	*%rax
	movq	80(%rsp), %rcx
	addq	120(%rsp), %rcx
	movq	%rcx, 80(%rsp)
	testl	%eax, %eax
	jne	.LBB33_32
	jmp	.LBB33_4
.LBB33_3:
	xorl	%ecx, %ecx
.LBB33_4:
	leal	-7(%r14), %eax
	cmpl	$20, %eax
	ja	.LBB33_9
	leaq	.LJTI33_0(%rip), %rdx
	movslq	(%rdx,%rax,4), %rax
	addq	%rdx, %rax
	jmpq	*%rax
.LBB33_6:
	movq	(%rbx), %rax
	testq	%rax, %rax
	je	.LBB33_42
	movq	8(%rbx), %rcx
	movq	$0, 96(%rsp)
	movq	%rdi, 48(%rsp)
	leaq	96(%rsp), %rdx
	movq	%rdx, 40(%rsp)
	movq	$0, 32(%rsp)
	leaq	.Lggv$aa(%rip), %r8
	jmp	.LBB33_31
.LBB33_8:
	movl	$-1, %eax
	xorl	%ecx, %ecx
	jmp	.LBB33_32
.LBB33_9:
	cmpl	$31, %r14d
	jg	.LBB33_35
	movq	(%rbx), %rax
	testq	%rax, %rax
	je	.LBB33_42
	movq	8(%rbx), %rcx
	movq	$0, 96(%rsp)
	movq	%rdi, 48(%rsp)
	leaq	96(%rsp), %r12
	movq	%r12, 40(%rsp)
	movq	$0, 32(%rsp)
	leaq	.Lggv$89(%rip), %r8
	movl	$4, %edx
	xorl	%r9d, %r9d
	callq	*%rax
	movq	80(%rsp), %rcx
	addq	96(%rsp), %rcx
	movq	%rcx, 80(%rsp)
	testl	%eax, %eax
	jne	.LBB33_32
	movw	$0, 118(%rsp)
	leaq	118(%rsp), %rax
	movq	%rax, 168(%rsp)
	movq	$2, 176(%rsp)
	movslq	%r14d, %r8
	xorps	%xmm0, %xmm0
	movaps	%xmm0, 128(%rsp)
	movq	%rdi, 64(%rsp)
	leaq	strconv.digits(%rip), %rax
	movq	%rax, 48(%rsp)
	movb	$0, 56(%rsp)
	movq	$64, 40(%rsp)
	movb	$1, 32(%rsp)
	leaq	128(%rsp), %rcx
	leaq	168(%rsp), %rdx
	movl	$16, %r9d
	callq	strconv.append_bits
	movq	128(%rsp), %rcx
	movq	136(%rsp), %rax
	movq	%rcx, 152(%rsp)
	movq	%rax, 160(%rsp)
	cmpq	$2, %rax
	je	.LBB33_52
	cmpq	$1, %rax
	je	.LBB33_46
	testq	%rax, %rax
	jne	.LBB33_47
	movq	(%rbx), %rax
	testq	%rax, %rax
	je	.LBB33_54
	movq	8(%rbx), %rcx
	movq	$0, 96(%rsp)
	movq	%rdi, 48(%rsp)
	movq	%r12, 40(%rsp)
	movq	$0, 32(%rsp)
	leaq	.Lggv$8a(%rip), %r8
	jmp	.LBB33_31
.LBB33_17:
	movq	(%rbx), %rax
	testq	%rax, %rax
	je	.LBB33_42
	movq	8(%rbx), %rcx
	movq	$0, 96(%rsp)
	movq	%rdi, 48(%rsp)
	leaq	96(%rsp), %rdx
	movq	%rdx, 40(%rsp)
	movq	$0, 32(%rsp)
	leaq	.Lggv$ad(%rip), %r8
	jmp	.LBB33_31
.LBB33_19:
	movq	(%rbx), %rax
	testq	%rax, %rax
	je	.LBB33_42
	movq	8(%rbx), %rcx
	movq	$0, 96(%rsp)
	movq	%rdi, 48(%rsp)
	leaq	96(%rsp), %rdx
	movq	%rdx, 40(%rsp)
	movq	$0, 32(%rsp)
	leaq	.Lggv$ab(%rip), %r8
	jmp	.LBB33_31
.LBB33_21:
	movq	(%rbx), %rax
	testq	%rax, %rax
	je	.LBB33_42
	movq	8(%rbx), %rcx
	movq	$0, 96(%rsp)
	movq	%rdi, 48(%rsp)
	leaq	96(%rsp), %rdx
	movq	%rdx, 40(%rsp)
	movq	$0, 32(%rsp)
	leaq	.Lggv$af(%rip), %r8
	jmp	.LBB33_31
.LBB33_23:
	movq	(%rbx), %rax
	testq	%rax, %rax
	je	.LBB33_42
	movq	8(%rbx), %rcx
	movq	$0, 96(%rsp)
	movq	%rdi, 48(%rsp)
	leaq	96(%rsp), %rdx
	movq	%rdx, 40(%rsp)
	movq	$0, 32(%rsp)
	leaq	.Lggv$ac(%rip), %r8
	jmp	.LBB33_31
.LBB33_25:
	movq	(%rbx), %rax
	testq	%rax, %rax
	je	.LBB33_42
	movq	8(%rbx), %rcx
	movq	$0, 96(%rsp)
	movq	%rdi, 48(%rsp)
	leaq	96(%rsp), %rdx
	movq	%rdx, 40(%rsp)
	movq	$0, 32(%rsp)
	leaq	.Lggv$b0(%rip), %r8
	jmp	.LBB33_31
.LBB33_27:
	movq	(%rbx), %rax
	testq	%rax, %rax
	je	.LBB33_42
	movq	8(%rbx), %rcx
	movq	$0, 96(%rsp)
	movq	%rdi, 48(%rsp)
	leaq	96(%rsp), %rdx
	movq	%rdx, 40(%rsp)
	movq	$0, 32(%rsp)
	leaq	.Lggv$ae(%rip), %r8
	jmp	.LBB33_31
.LBB33_29:
	movq	(%rbx), %rax
	testq	%rax, %rax
	je	.LBB33_42
	movq	8(%rbx), %rcx
	movq	$0, 96(%rsp)
	movq	%rdi, 48(%rsp)
	leaq	96(%rsp), %rdx
	movq	%rdx, 40(%rsp)
	movq	$0, 32(%rsp)
	leaq	.Lggv$b1(%rip), %r8
.LBB33_31:
	movl	$4, %edx
	xorl	%r9d, %r9d
	callq	*%rax
	movq	80(%rsp), %rcx
	addq	96(%rsp), %rcx
	movq	%rcx, 80(%rsp)
	testl	%eax, %eax
	jne	.LBB33_32
.LBB33_47:
	testb	%bpl, %bpl
	je	.LBB33_50
	movb	$39, 95(%rsp)
	leaq	95(%rsp), %rax
	movq	%rax, 96(%rsp)
	movq	$1, 104(%rsp)
	movq	(%rbx), %rax
	testq	%rax, %rax
	je	.LBB33_54
	movq	8(%rbx), %rcx
	movq	$0, 120(%rsp)
	movq	%rdi, 48(%rsp)
	leaq	120(%rsp), %rdx
	movq	%rdx, 40(%rsp)
	movq	$0, 32(%rsp)
	leaq	96(%rsp), %r8
	movl	$4, %edx
	xorl	%r9d, %r9d
	callq	*%rax
	movq	80(%rsp), %rcx
	addq	120(%rsp), %rcx
	testl	%eax, %eax
	jne	.LBB33_32
	jmp	.LBB33_51
.LBB33_42:
	movl	$-1, %eax
.LBB33_32:
	movq	%rcx, (%r15)
	testq	%rsi, %rsi
	je	.LBB33_34
.LBB33_33:
	addq	%rcx, (%rsi)
.LBB33_34:
	addq	$192, %rsp
	popq	%rbx
	popq	%rbp
	popq	%rdi
	popq	%rsi
	popq	%r12
	popq	%r14
	popq	%r15
	retq
.LBB33_50:
	movq	80(%rsp), %rcx
.LBB33_51:
	movq	%rcx, (%r15)
	xorl	%eax, %eax
	testq	%rsi, %rsi
	jne	.LBB33_33
	jmp	.LBB33_34
.LBB33_35:
	movq	%rdi, 32(%rsp)
	leaq	80(%rsp), %r8
	leaq	184(%rsp), %r9
	movq	%rbx, %rcx
	movl	%r14d, %edx
	callq	io.write_rune
	testl	%eax, %eax
	je	.LBB33_47
.LBB33_36:
	movq	80(%rsp), %rcx
	jmp	.LBB33_32
.LBB33_46:
	leaq	80(%rsp), %r8
	movq	%rbx, %rcx
	movb	$48, %dl
	movq	%rdi, %r9
	callq	io.write_byte
	testl	%eax, %eax
	jne	.LBB33_36
	jmp	.LBB33_47
.LBB33_52:
	movq	(%rbx), %rax
	testq	%rax, %rax
	je	.LBB33_54
	movq	8(%rbx), %rcx
	movq	$0, 96(%rsp)
	movq	%rdi, 48(%rsp)
	movq	%r12, 40(%rsp)
	movq	$0, 32(%rsp)
	leaq	152(%rsp), %r8
	jmp	.LBB33_31
.LBB33_54:
	movl	$-1, %eax
	movq	80(%rsp), %rcx
	jmp	.LBB33_32
	.section	.rdata,"dr"
	.p2align	2, 0x0
.LJTI33_0:
	.long	.LBB33_6-.LJTI33_0
	.long	.LBB33_19-.LJTI33_0
	.long	.LBB33_25-.LJTI33_0
	.long	.LBB33_27-.LJTI33_0
	.long	.LBB33_29-.LJTI33_0
	.long	.LBB33_17-.LJTI33_0
	.long	.LBB33_21-.LJTI33_0
	.long	.LBB33_9-.LJTI33_0
	.long	.LBB33_9-.LJTI33_0
	.long	.LBB33_9-.LJTI33_0
	.long	.LBB33_9-.LJTI33_0
	.long	.LBB33_9-.LJTI33_0
	.long	.LBB33_9-.LJTI33_0
	.long	.LBB33_9-.LJTI33_0
	.long	.LBB33_9-.LJTI33_0
	.long	.LBB33_9-.LJTI33_0
	.long	.LBB33_9-.LJTI33_0
	.long	.LBB33_9-.LJTI33_0
	.long	.LBB33_9-.LJTI33_0
	.long	.LBB33_9-.LJTI33_0
	.long	.LBB33_23-.LJTI33_0
	.text
	.seh_endproc

	.def	strconv_decimal.assign;
	.scl	3;
	.type	32;
	.endef
	.p2align	4, 0x90
strconv_decimal.assign:
.seh_proc strconv_decimal.assign
	pushq	%rsi
	.seh_pushreg %rsi
	subq	$112, %rsp
	.seh_stackalloc 112
	.seh_endprologue
	xorps	%xmm0, %xmm0
	movaps	%xmm0, 96(%rsp)
	movaps	%xmm0, 80(%rsp)
	movaps	%xmm0, 64(%rsp)
	movaps	%xmm0, 48(%rsp)
	testq	%rdx, %rdx
	je	.LBB34_5
	movq	%rdx, %r8
	xorl	%r10d, %r10d
	movabsq	$-3689348814741910323, %r11
	movabsq	$2951479051793528259, %rsi
	.p2align	4, 0x90
.LBB34_2:
	cmpq	$64, %r10
	je	.LBB34_17
	movq	%r8, %rax
	mulq	%r11
	movq	%rdx, %r9
	shrq	$3, %r9
	imull	$246, %r9d, %eax
	addl	%r8d, %eax
	addb	$48, %al
	movb	%al, 48(%rsp,%r10)
	cmpq	$10, %r8
	jb	.LBB34_6
	movq	%r8, %rax
	shrq	$2, %rax
	mulq	%rsi
	shrq	$2, %rdx
	imull	$246, %edx, %eax
	addl	%eax, %r9d
	addb	$48, %r9b
	movb	%r9b, 49(%rsp,%r10)
	addq	$2, %r10
	cmpq	$100, %r8
	movq	%rdx, %r8
	jae	.LBB34_2
	jmp	.LBB34_7
.LBB34_5:
	movups	%xmm0, 384(%rcx)
	addq	$392, %rcx
	movq	%rcx, %rdx
	jmp	.LBB34_15
.LBB34_6:
	incq	%r10
.LBB34_7:
	movq	$0, 384(%rcx)
	incq	%r10
	xorl	%r9d, %r9d
	.p2align	4, 0x90
.LBB34_8:
	cmpq	$384, %r9
	jae	.LBB34_18
	movzbl	46(%rsp,%r10), %eax
	movb	%al, (%rcx,%r9)
	movq	384(%rcx), %rax
	leaq	1(%rax), %r9
	movq	%r9, 384(%rcx)
	decq	%r10
	cmpq	$1, %r10
	jg	.LBB34_8
	leaq	392(%rcx), %rdx
	movq	%r9, 392(%rcx)
	movabsq	$9223372036854775806, %r8
	cmpq	%r8, %rax
	ja	.LBB34_14
	.p2align	4, 0x90
.LBB34_11:
	cmpq	$385, %r9
	jae	.LBB34_19
	cmpb	$48, (%rcx,%rax)
	jne	.LBB34_16
	movq	%rax, 384(%rcx)
	leaq	-1(%rax), %r8
	incq	%rax
	cmpq	$1, %rax
	movq	%r8, %rax
	ja	.LBB34_11
	jmp	.LBB34_15
.LBB34_14:
	testq	%r9, %r9
	jne	.LBB34_16
.LBB34_15:
	movq	$0, (%rdx)
.LBB34_16:
	addq	$112, %rsp
	popq	%rsi
	retq
.LBB34_18:
	movq	$384, 32(%rsp)
	leaq	.Lggv$11b(%rip), %rcx
	movl	$186, %edx
	movl	$12, %r8d
	callq	"runtime.bounds_check_error.handle_error-0"
.LBB34_17:
	movq	$64, 32(%rsp)
	leaq	.Lggv$11b(%rip), %rcx
	movl	$64, %r9d
	movl	$179, %edx
	movl	$7, %r8d
	callq	"runtime.bounds_check_error.handle_error-0"
.LBB34_19:
	movq	$384, 32(%rsp)
	leaq	.Lggv$11b(%rip), %rcx
	movl	$157, %edx
	movl	$30, %r8d
	movq	%rax, %r9
	callq	"runtime.bounds_check_error.handle_error-0"
	int3
	.seh_endproc

	.def	runtime.print_rune;
	.scl	3;
	.type	32;
	.endef
	.p2align	4, 0x90
runtime.print_rune:
.seh_proc runtime.print_rune
	subq	$72, %rsp
	.seh_stackalloc 72
	.seh_endprologue
	cmpl	$127, %ecx
	jg	.LBB35_1
	addq	$72, %rsp
	jmp	runtime.print_byte
.LBB35_1:
	movl	$0, 40(%rsp)
	leaq	40(%rsp), %rdx
	callq	runtime.encode_rune
	movl	40(%rsp), %ecx
	movl	%ecx, 44(%rsp)
	leaq	44(%rsp), %rcx
	movq	%rcx, 56(%rsp)
	movq	%rax, 64(%rsp)
	movq	$0, 48(%rsp)
	leaq	56(%rsp), %rcx
	leaq	48(%rsp), %rdx
	callq	runtime.stderr_write
	nop
	addq	$72, %rsp
	retq
	.seh_endproc

	.def	runtime.print_u64;
	.scl	3;
	.type	32;
	.endef
	.p2align	4, 0x90
runtime.print_u64:
.seh_proc runtime.print_u64
	subq	$200, %rsp
	.seh_stackalloc 200
	.seh_endprologue
	xorps	%xmm0, %xmm0
	movaps	%xmm0, 176(%rsp)
	movaps	%xmm0, 160(%rsp)
	movaps	%xmm0, 144(%rsp)
	movaps	%xmm0, 128(%rsp)
	movaps	%xmm0, 112(%rsp)
	movaps	%xmm0, 96(%rsp)
	movaps	%xmm0, 80(%rsp)
	movaps	%xmm0, 64(%rsp)
	movb	$0, 192(%rsp)
	movl	$129, %r8d
	leaq	.Lcsbs$4(%rip), %r9
	cmpq	$10, %rcx
	jb	.LBB36_1
	movabsq	$-3689348814741910323, %r10
	.p2align	4, 0x90
.LBB36_3:
	movq	%rcx, %rax
	mulq	%r10
	shrq	$3, %rdx
	leaq	(%rdx,%rdx), %rax
	leaq	(%rax,%rax,4), %rax
	movq	%rcx, %r11
	subq	%rax, %r11
	movzbl	(%r9,%r11), %eax
	movb	%al, 63(%rsp,%r8)
	decq	%r8
	cmpq	$99, %rcx
	movq	%rdx, %rcx
	ja	.LBB36_3
	jmp	.LBB36_4
.LBB36_1:
	movq	%rcx, %rdx
.LBB36_4:
	leaq	64(%rsp), %rax
	leaq	(%r8,%rax), %rcx
	decq	%rcx
	movzbl	(%rdx,%r9), %edx
	movb	%dl, -1(%r8,%rax)
	movl	$130, %eax
	subq	%r8, %rax
	movq	%rcx, 40(%rsp)
	movq	%rax, 48(%rsp)
	leaq	40(%rsp), %rcx
	leaq	56(%rsp), %rdx
	callq	runtime.stderr_write
	nop
	addq	$200, %rsp
	retq
	.seh_endproc

	.def	strconv_decimal.shift_right;
	.scl	3;
	.type	32;
	.endef
	.p2align	4, 0x90
strconv_decimal.shift_right:
.seh_proc strconv_decimal.shift_right
	pushq	%rsi
	.seh_pushreg %rsi
	pushq	%rdi
	.seh_pushreg %rdi
	pushq	%rbx
	.seh_pushreg %rbx
	subq	$48, %rsp
	.seh_stackalloc 48
	.seh_endprologue
	movq	%rcx, %rax
	leaq	384(%rcx), %r8
	movq	384(%rcx), %r10
	xorl	%r9d, %r9d
	testq	%r10, %r10
	movl	$0, %esi
	cmovgq	%r10, %rsi
	leaq	-1(%r10), %rdi
	xorl	%r11d, %r11d
	.p2align	4, 0x90
.LBB37_1:
	cmpq	%r9, %rsi
	je	.LBB37_6
	cmpq	$384, %r9
	je	.LBB37_36
	movzbl	(%rax,%r9), %ecx
	leaq	(%r11,%r11,4), %r11
	leaq	(%rcx,%r11,2), %r11
	addq	$-48, %r11
	movq	%r11, %rbx
	movl	%edx, %ecx
	shrq	%cl, %rbx
	testq	%rbx, %rbx
	jne	.LBB37_9
	cmpq	%r9, %rdi
	je	.LBB37_6
	movzbl	1(%rax,%r9), %ecx
	leaq	(%r11,%r11,4), %r11
	leaq	(%rcx,%r11,2), %r11
	addq	$-48, %r11
	addq	$2, %r9
	movq	%r11, %rbx
	movl	%edx, %ecx
	shrq	%cl, %rbx
	testq	%rbx, %rbx
	je	.LBB37_1
	jmp	.LBB37_12
.LBB37_6:
	testq	%r11, %r11
	je	.LBB37_32
	movq	%r11, %r9
	movl	%edx, %ecx
	shrq	%cl, %r9
	testq	%r9, %r9
	je	.LBB37_10
	movq	%rsi, %r9
	jmp	.LBB37_12
.LBB37_9:
	incq	%r9
	jmp	.LBB37_12
.LBB37_10:
	movq	%rsi, %r9
	.p2align	4, 0x90
.LBB37_11:
	addq	%r11, %r11
	leaq	(%r11,%r11,4), %r11
	incq	%r9
	movq	%r11, %rsi
	movl	%edx, %ecx
	shrq	%cl, %rsi
	testq	%rsi, %rsi
	je	.LBB37_11
.LBB37_12:
	movq	392(%rax), %rdi
	subq	%r9, %rdi
	movq	$-1, %rsi
	movl	%edx, %ecx
	shlq	%cl, %rsi
	incq	%rdi
	movq	%rdi, 392(%rax)
	notq	%rsi
	cmpq	%r10, %r9
	jge	.LBB37_16
	xorl	%r10d, %r10d
	.p2align	4, 0x90
.LBB37_14:
	cmpq	$384, %r9
	jae	.LBB37_34
	movq	%r11, %rdi
	andq	%rsi, %rdi
	movl	%edx, %ecx
	shrq	%cl, %r11
	movzbl	(%rax,%r9), %ecx
	addb	$48, %r11b
	movb	%r11b, (%rax,%r10)
	incq	%r10
	leaq	(%rdi,%rdi,4), %r11
	leaq	(%rcx,%r11,2), %r11
	addq	$-48, %r11
	incq	%r9
	cmpq	384(%rax), %r9
	jl	.LBB37_14
	jmp	.LBB37_17
.LBB37_16:
	xorl	%r10d, %r10d
.LBB37_17:
	leaq	392(%rax), %rdi
	testq	%r11, %r11
	jne	.LBB37_21
	movq	%r10, (%r8)
	testq	%r10, %r10
	jne	.LBB37_27
	jmp	.LBB37_31
	.p2align	4, 0x90
.LBB37_20:
	andq	%rsi, %r11
	leaq	(%r11,%r11), %rcx
	leaq	(%rcx,%rcx,4), %rcx
	testq	%r11, %r11
	movq	%rcx, %r11
	je	.LBB37_26
.LBB37_21:
	movq	%r11, %r9
	movl	%edx, %ecx
	shrq	%cl, %r9
	cmpq	$383, %r10
	jg	.LBB37_24
	ja	.LBB37_37
	addb	$48, %r9b
	movb	%r9b, (%rax,%r10)
	incq	%r10
	jmp	.LBB37_20
	.p2align	4, 0x90
.LBB37_24:
	testq	%r9, %r9
	je	.LBB37_20
	movb	$1, 401(%rax)
	jmp	.LBB37_20
.LBB37_26:
	movq	%r10, (%r8)
.LBB37_27:
	leaq	-1(%r10), %r9
	.p2align	4, 0x90
.LBB37_28:
	cmpq	$385, %r10
	jae	.LBB37_35
	cmpb	$48, (%rax,%r9)
	jne	.LBB37_33
	movq	%r9, (%r8)
	leaq	-1(%r9), %rcx
	incq	%r9
	cmpq	$1, %r9
	movq	%rcx, %r9
	ja	.LBB37_28
.LBB37_31:
	movq	%rdi, %r8
.LBB37_32:
	movq	$0, (%r8)
.LBB37_33:
	addq	$48, %rsp
	popq	%rbx
	popq	%rdi
	popq	%rsi
	retq
.LBB37_34:
	movq	$384, 32(%rsp)
	leaq	.Lggv$11b(%rip), %rcx
	movl	$227, %edx
	movl	$22, %r8d
	callq	"runtime.bounds_check_error.handle_error-0"
.LBB37_35:
	movq	$384, 32(%rsp)
	leaq	.Lggv$11b(%rip), %rcx
	movl	$157, %edx
	movl	$30, %r8d
	callq	"runtime.bounds_check_error.handle_error-0"
.LBB37_36:
	movq	$384, 32(%rsp)
	leaq	.Lggv$11b(%rip), %rcx
	movl	$384, %r9d
	movl	$219, %edx
	movl	$22, %r8d
	callq	"runtime.bounds_check_error.handle_error-0"
.LBB37_37:
	movq	$384, 32(%rsp)
	leaq	.Lggv$11b(%rip), %rcx
	movl	$239, %edx
	movl	$13, %r8d
	movq	%r10, %r9
	callq	"runtime.bounds_check_error.handle_error-0"
	int3
	.seh_endproc

	.def	io.write_escaped_rune;
	.scl	3;
	.type	32;
	.endef
	.p2align	4, 0x90
io.write_escaped_rune:
.seh_proc io.write_escaped_rune
	pushq	%r15
	.seh_pushreg %r15
	pushq	%r14
	.seh_pushreg %r14
	pushq	%r12
	.seh_pushreg %r12
	pushq	%rsi
	.seh_pushreg %rsi
	pushq	%rdi
	.seh_pushreg %rdi
	pushq	%rbx
	.seh_pushreg %rbx
	subq	$104, %rsp
	.seh_stackalloc 104
	.seh_endprologue
	movq	%r9, %rsi
	movl	%edx, %ebx
	movq	192(%rsp), %rdi
	movq	$0, 56(%rsp)
	cmpl	$92, %edx
	je	.LBB38_2
	movzbl	%r8b, %eax
	cmpl	%ebx, %eax
	je	.LBB38_2
	cmpl	$255, %ebx
	jg	.LBB38_13
	leal	-32(%rbx), %eax
	cmpl	$95, %eax
	jb	.LBB38_12
	cmpl	$161, %ebx
	jl	.LBB38_13
	cmpl	$173, %ebx
	je	.LBB38_13
.LBB38_12:
	movq	%rdi, 40(%rsp)
	leaq	96(%rsp), %rax
	movq	%rax, 32(%rsp)
	leaq	56(%rsp), %r9
	movl	%ebx, %edx
	xorl	%r8d, %r8d
	callq	io.write_encoded_rune
	jmp	.LBB38_50
.LBB38_2:
	movb	$92, 71(%rsp)
	leaq	71(%rsp), %r14
	movq	%r14, 72(%rsp)
	movq	$1, 80(%rsp)
	movq	(%rcx), %rax
	testq	%rax, %rax
	je	.LBB38_3
	movq	%rcx, %r12
	movq	8(%rcx), %rcx
	movq	$0, 88(%rsp)
	movq	%rdi, 48(%rsp)
	leaq	88(%rsp), %r15
	movq	%r15, 40(%rsp)
	movq	$0, 32(%rsp)
	leaq	72(%rsp), %r8
	movl	$4, %edx
	xorl	%r9d, %r9d
	callq	*%rax
	movq	56(%rsp), %rcx
	addq	88(%rsp), %rcx
	movq	%rcx, 56(%rsp)
	testl	%eax, %eax
	jne	.LBB38_51
	movb	%bl, 71(%rsp)
	movq	%r14, 72(%rsp)
	movq	$1, 80(%rsp)
	movq	(%r12), %rax
	testq	%rax, %rax
	je	.LBB38_6
	movq	8(%r12), %rcx
	movq	$0, 88(%rsp)
	movq	%rdi, 48(%rsp)
	movq	%r15, 40(%rsp)
	movq	$0, 32(%rsp)
	leaq	72(%rsp), %r8
	movl	$4, %edx
	xorl	%r9d, %r9d
	callq	*%rax
	movq	56(%rsp), %rcx
	addq	88(%rsp), %rcx
	jmp	.LBB38_51
.LBB38_13:
	leal	-7(%rbx), %eax
	cmpl	$20, %eax
	ja	.LBB38_33
	leaq	.LJTI38_0(%rip), %rdx
	movslq	(%rdx,%rax,4), %rax
	addq	%rdx, %rax
	jmpq	*%rax
.LBB38_15:
	movq	(%rcx), %rax
	testq	%rax, %rax
	je	.LBB38_3
	movq	8(%rcx), %rcx
	movq	$0, 72(%rsp)
	movq	%rdi, 48(%rsp)
	leaq	72(%rsp), %rdx
	movq	%rdx, 40(%rsp)
	movq	$0, 32(%rsp)
	leaq	.Lggv$aa(%rip), %r8
	jmp	.LBB38_17
.LBB38_6:
	movl	$-1, %eax
	jmp	.LBB38_51
.LBB38_33:
	cmpl	$32, %ebx
	jge	.LBB38_34
	leaq	56(%rsp), %r8
	movq	%rcx, %r14
	movb	$92, %dl
	movq	%rdi, %r9
	callq	io.write_byte
	testl	%eax, %eax
	jne	.LBB38_50
	leaq	56(%rsp), %r8
	movq	%r14, %rcx
	movb	$120, %dl
	movq	%rdi, %r9
	callq	io.write_byte
	testl	%eax, %eax
	jne	.LBB38_50
	movzbl	%bl, %ebx
	movl	%ebx, %eax
	shrl	$4, %eax
	leaq	.Lcsbs$2(%rip), %r15
.LBB38_46:
	movzbl	(%rax,%r15), %edx
	leaq	56(%rsp), %r8
	movq	%r14, %rcx
	movq	%rdi, %r9
	callq	io.write_byte
	testl	%eax, %eax
	jne	.LBB38_50
	andl	$15, %ebx
	movzbl	(%rbx,%r15), %edx
	leaq	56(%rsp), %r8
	movq	%r14, %rcx
.LBB38_48:
	movq	%rdi, %r9
	callq	io.write_byte
	testl	%eax, %eax
	jne	.LBB38_50
	jmp	.LBB38_18
.LBB38_23:
	movq	(%rcx), %rax
	testq	%rax, %rax
	je	.LBB38_3
	movq	8(%rcx), %rcx
	movq	$0, 72(%rsp)
	movq	%rdi, 48(%rsp)
	leaq	72(%rsp), %rdx
	movq	%rdx, 40(%rsp)
	movq	$0, 32(%rsp)
	leaq	.Lggv$ad(%rip), %r8
	jmp	.LBB38_17
.LBB38_19:
	movq	(%rcx), %rax
	testq	%rax, %rax
	je	.LBB38_3
	movq	8(%rcx), %rcx
	movq	$0, 72(%rsp)
	movq	%rdi, 48(%rsp)
	leaq	72(%rsp), %rdx
	movq	%rdx, 40(%rsp)
	movq	$0, 32(%rsp)
	leaq	.Lggv$ab(%rip), %r8
	jmp	.LBB38_17
.LBB38_27:
	movq	(%rcx), %rax
	testq	%rax, %rax
	je	.LBB38_3
	movq	8(%rcx), %rcx
	movq	$0, 72(%rsp)
	movq	%rdi, 48(%rsp)
	leaq	72(%rsp), %rdx
	movq	%rdx, 40(%rsp)
	movq	$0, 32(%rsp)
	leaq	.Lggv$af(%rip), %r8
	jmp	.LBB38_17
.LBB38_21:
	movq	(%rcx), %rax
	testq	%rax, %rax
	je	.LBB38_3
	movq	8(%rcx), %rcx
	movq	$0, 72(%rsp)
	movq	%rdi, 48(%rsp)
	leaq	72(%rsp), %rdx
	movq	%rdx, 40(%rsp)
	movq	$0, 32(%rsp)
	leaq	.Lggv$ac(%rip), %r8
	jmp	.LBB38_17
.LBB38_29:
	movq	(%rcx), %rax
	testq	%rax, %rax
	je	.LBB38_3
	movq	8(%rcx), %rcx
	movq	$0, 72(%rsp)
	movq	%rdi, 48(%rsp)
	leaq	72(%rsp), %rdx
	movq	%rdx, 40(%rsp)
	movq	$0, 32(%rsp)
	leaq	.Lggv$b0(%rip), %r8
	jmp	.LBB38_17
.LBB38_25:
	movq	(%rcx), %rax
	testq	%rax, %rax
	je	.LBB38_3
	movq	8(%rcx), %rcx
	movq	$0, 72(%rsp)
	movq	%rdi, 48(%rsp)
	leaq	72(%rsp), %rdx
	movq	%rdx, 40(%rsp)
	movq	$0, 32(%rsp)
	leaq	.Lggv$ae(%rip), %r8
	jmp	.LBB38_17
.LBB38_31:
	movq	(%rcx), %rax
	testq	%rax, %rax
	je	.LBB38_3
	movq	8(%rcx), %rcx
	movq	$0, 72(%rsp)
	movq	%rdi, 48(%rsp)
	leaq	72(%rsp), %rdx
	movq	%rdx, 40(%rsp)
	movq	$0, 32(%rsp)
	leaq	.Lggv$b1(%rip), %r8
.LBB38_17:
	movl	$4, %edx
	xorl	%r9d, %r9d
	callq	*%rax
	movq	56(%rsp), %rcx
	addq	72(%rsp), %rcx
	movq	%rcx, 56(%rsp)
	testl	%eax, %eax
	jne	.LBB38_51
.LBB38_18:
	xorl	%eax, %eax
.LBB38_50:
	movq	56(%rsp), %rcx
	jmp	.LBB38_51
.LBB38_3:
	movl	$-1, %eax
	xorl	%ecx, %ecx
.LBB38_51:
	movq	%rcx, (%rsi)
	addq	$104, %rsp
	popq	%rbx
	popq	%rdi
	popq	%rsi
	popq	%r12
	popq	%r14
	popq	%r15
	retq
.LBB38_34:
	movl	$65533, %r14d
	cmpl	$1114111, %ebx
	ja	.LBB38_37
	cmpl	$65535, %ebx
	ja	.LBB38_49
	movl	%ebx, %r14d
.LBB38_37:
	leaq	56(%rsp), %r8
	movq	%rcx, %rbx
	movb	$92, %dl
	movq	%rdi, %r9
	callq	io.write_byte
	testl	%eax, %eax
	jne	.LBB38_50
	leaq	56(%rsp), %r8
	movq	%rbx, %rcx
	movb	$117, %dl
	movq	%rdi, %r9
	callq	io.write_byte
	testl	%eax, %eax
	jne	.LBB38_50
	movl	%r14d, %eax
	shrl	$12, %eax
	leaq	.Lcsbs$2(%rip), %r15
	movzbl	(%rax,%r15), %edx
	leaq	56(%rsp), %r8
	movq	%rbx, %rcx
	movq	%rdi, %r9
	callq	io.write_byte
	testl	%eax, %eax
	jne	.LBB38_50
	movl	%r14d, %eax
	shrl	$8, %eax
	andl	$15, %eax
	movzbl	(%rax,%r15), %edx
	leaq	56(%rsp), %r8
	movq	%rbx, %rcx
	movq	%rdi, %r9
	callq	io.write_byte
	testl	%eax, %eax
	jne	.LBB38_50
	movl	%r14d, %eax
	shrl	$4, %eax
	andl	$15, %eax
	movzbl	(%rax,%r15), %edx
	leaq	56(%rsp), %r8
	movq	%rbx, %rcx
	movq	%rdi, %r9
	callq	io.write_byte
	testl	%eax, %eax
	jne	.LBB38_50
	andl	$15, %r14d
	movzbl	(%r14,%r15), %edx
	leaq	56(%rsp), %r8
	movq	%rbx, %rcx
	jmp	.LBB38_48
.LBB38_49:
	leaq	56(%rsp), %r8
	movq	%rcx, %r14
	movb	$92, %dl
	movq	%rdi, %r9
	callq	io.write_byte
	testl	%eax, %eax
	jne	.LBB38_50
	leaq	56(%rsp), %r8
	movq	%r14, %rcx
	movb	$85, %dl
	movq	%rdi, %r9
	callq	io.write_byte
	testl	%eax, %eax
	jne	.LBB38_50
	leaq	56(%rsp), %r8
	movq	%r14, %rcx
	movb	$48, %dl
	movq	%rdi, %r9
	callq	io.write_byte
	testl	%eax, %eax
	jne	.LBB38_50
	movl	%ebx, %eax
	shrl	$20, %eax
	leaq	.Lcsbs$2(%rip), %r15
	movzbl	(%rax,%r15), %edx
	leaq	56(%rsp), %r8
	movq	%r14, %rcx
	movq	%rdi, %r9
	callq	io.write_byte
	testl	%eax, %eax
	jne	.LBB38_50
	movl	%ebx, %eax
	shrl	$16, %eax
	andl	$15, %eax
	movzbl	(%rax,%r15), %edx
	leaq	56(%rsp), %r8
	movq	%r14, %rcx
	movq	%rdi, %r9
	callq	io.write_byte
	testl	%eax, %eax
	jne	.LBB38_50
	movl	%ebx, %eax
	shrl	$12, %eax
	andl	$15, %eax
	movzbl	(%rax,%r15), %edx
	leaq	56(%rsp), %r8
	movq	%r14, %rcx
	movq	%rdi, %r9
	callq	io.write_byte
	testl	%eax, %eax
	jne	.LBB38_50
	movl	%ebx, %eax
	shrl	$8, %eax
	andl	$15, %eax
	movzbl	(%rax,%r15), %edx
	leaq	56(%rsp), %r8
	movq	%r14, %rcx
	movq	%rdi, %r9
	callq	io.write_byte
	testl	%eax, %eax
	jne	.LBB38_50
	movl	%ebx, %eax
	shrl	$4, %eax
	andl	$15, %eax
	jmp	.LBB38_46
	.section	.rdata,"dr"
	.p2align	2, 0x0
.LJTI38_0:
	.long	.LBB38_15-.LJTI38_0
	.long	.LBB38_19-.LJTI38_0
	.long	.LBB38_29-.LJTI38_0
	.long	.LBB38_25-.LJTI38_0
	.long	.LBB38_31-.LJTI38_0
	.long	.LBB38_23-.LJTI38_0
	.long	.LBB38_27-.LJTI38_0
	.long	.LBB38_33-.LJTI38_0
	.long	.LBB38_33-.LJTI38_0
	.long	.LBB38_33-.LJTI38_0
	.long	.LBB38_33-.LJTI38_0
	.long	.LBB38_33-.LJTI38_0
	.long	.LBB38_33-.LJTI38_0
	.long	.LBB38_33-.LJTI38_0
	.long	.LBB38_33-.LJTI38_0
	.long	.LBB38_33-.LJTI38_0
	.long	.LBB38_33-.LJTI38_0
	.long	.LBB38_33-.LJTI38_0
	.long	.LBB38_33-.LJTI38_0
	.long	.LBB38_33-.LJTI38_0
	.long	.LBB38_21-.LJTI38_0
	.text
	.seh_endproc

	.def	runtime.print_i64;
	.scl	3;
	.type	32;
	.endef
	.p2align	4, 0x90
runtime.print_i64:
.seh_proc runtime.print_i64
	pushq	%rsi
	.seh_pushreg %rsi
	subq	$208, %rsp
	.seh_stackalloc 208
	.seh_endprologue
	movq	%rcx, %r8
	negq	%r8
	cmovsq	%rcx, %r8
	xorps	%xmm0, %xmm0
	movaps	%xmm0, 176(%rsp)
	movaps	%xmm0, 160(%rsp)
	movaps	%xmm0, 144(%rsp)
	movaps	%xmm0, 128(%rsp)
	movaps	%xmm0, 112(%rsp)
	movaps	%xmm0, 96(%rsp)
	movaps	%xmm0, 80(%rsp)
	movaps	%xmm0, 64(%rsp)
	movb	$0, 192(%rsp)
	movl	$129, %r9d
	leaq	.Lcsbs$4(%rip), %r10
	cmpq	$10, %r8
	jl	.LBB39_1
	movabsq	$-3689348814741910323, %r11
	.p2align	4, 0x90
.LBB39_3:
	movq	%r8, %rax
	mulq	%r11
	shrq	$3, %rdx
	leaq	(%rdx,%rdx), %rax
	leaq	(%rax,%rax,4), %rax
	movq	%r8, %rsi
	subq	%rax, %rsi
	movzbl	(%r10,%rsi), %eax
	movb	%al, 63(%rsp,%r9)
	decq	%r9
	cmpq	$99, %r8
	movq	%rdx, %r8
	ja	.LBB39_3
	jmp	.LBB39_4
.LBB39_1:
	movq	%r8, %rdx
.LBB39_4:
	movabsq	$7378697629483820647, %r8
	movq	%rdx, %rax
	movq	%rdx, %r11
	imulq	%r8
	movq	%rdx, %rax
	shrq	$63, %rax
	sarq	$2, %rdx
	addq	%rax, %rdx
	addq	%rdx, %rdx
	leaq	(%rdx,%rdx,4), %rax
	subq	%rax, %r11
	movzbl	(%r10,%r11), %eax
	movb	%al, 63(%rsp,%r9)
	testq	%rcx, %rcx
	js	.LBB39_6
	decq	%r9
	jmp	.LBB39_7
.LBB39_6:
	movb	$45, 62(%rsp,%r9)
	addq	$-2, %r9
.LBB39_7:
	leaq	(%rsp,%r9), %rax
	addq	$64, %rax
	movl	$129, %ecx
	subq	%r9, %rcx
	movq	%rax, 40(%rsp)
	movq	%rcx, 48(%rsp)
	leaq	40(%rsp), %rcx
	leaq	56(%rsp), %rdx
	callq	runtime.stderr_write
	nop
	addq	$208, %rsp
	popq	%rsi
	retq
	.seh_endproc

	.def	runtime.print_caller_location;
	.scl	3;
	.type	32;
	.endef
	.p2align	4, 0x90
runtime.print_caller_location:
.seh_proc runtime.print_caller_location
	pushq	%rsi
	.seh_pushreg %rsi
	subq	$32, %rsp
	.seh_stackalloc 32
	.seh_endprologue
	movq	%rcx, %rsi
	callq	runtime.print_string
	movb	$40, %cl
	callq	runtime.print_byte
	movslq	16(%rsi), %rcx
	callq	runtime.print_u64
	cmpl	$0, 20(%rsi)
	je	.LBB40_2
	movb	$58, %cl
	callq	runtime.print_byte
	movslq	20(%rsi), %rcx
	callq	runtime.print_u64
.LBB40_2:
	movb	$41, %cl
	addq	$32, %rsp
	popq	%rsi
	jmp	runtime.print_byte
	.seh_endproc

	.def	bufio._writer_proc;
	.scl	3;
	.type	32;
	.endef
	.p2align	4, 0x90
bufio._writer_proc:
.seh_proc bufio._writer_proc
	pushq	%r15
	.seh_pushreg %r15
	pushq	%r14
	.seh_pushreg %r14
	pushq	%r13
	.seh_pushreg %r13
	pushq	%r12
	.seh_pushreg %r12
	pushq	%rsi
	.seh_pushreg %rsi
	pushq	%rdi
	.seh_pushreg %rdi
	pushq	%rbp
	.seh_pushreg %rbp
	pushq	%rbx
	.seh_pushreg %rbx
	subq	$104, %rsp
	.seh_stackalloc 104
	.seh_endprologue
	decq	%rdx
	cmpq	$8, %rdx
	ja	.LBB41_34
	movq	%rcx, %rsi
	movq	224(%rsp), %rdi
	leaq	.LJTI41_0(%rip), %rax
	movslq	(%rax,%rdx,4), %rcx
	addq	%rax, %rcx
	jmpq	*%rcx
.LBB41_4:
	movq	%rsi, %rcx
	movq	%rdi, %rdx
	callq	bufio.writer_flush
	movl	%eax, %edi
	xorl	%r12d, %r12d
	jmp	.LBB41_3
.LBB41_30:
	movq	(%rsi), %rdx
	testq	%rdx, %rdx
	je	.LBB41_33
	movq	16(%rsi), %rax
	testq	%rax, %rax
	je	.LBB41_33
	movq	8(%rsi), %r8
	movq	24(%rsi), %rcx
	xorps	%xmm0, %xmm0
	movaps	%xmm0, 80(%rsp)
	movq	%rdi, 64(%rsp)
	leaq	80(%rsp), %r9
	movq	%r9, 56(%rsp)
	leaq	.Lggv$35(%rip), %r9
	movq	%r9, 48(%rsp)
	movq	%r8, 40(%rsp)
	movq	%rdx, 32(%rsp)
	movb	$1, %dl
	xorl	%r8d, %r8d
	xorl	%r9d, %r9d
	callq	*%rax
.LBB41_33:
	xorps	%xmm0, %xmm0
	movups	%xmm0, 48(%rsi)
	movups	%xmm0, 32(%rsi)
	movups	%xmm0, 16(%rsi)
	movups	%xmm0, (%rsi)
	movq	$0, 64(%rsi)
	xorl	%r12d, %r12d
	xorl	%edi, %edi
	jmp	.LBB41_3
.LBB41_5:
	movq	(%r8), %rbx
	movq	8(%r8), %r14
	movq	%rbx, 80(%rsp)
	movq	%r14, 88(%rsp)
	movq	8(%rsi), %rax
	movq	48(%rsi), %r9
	movq	%rax, %rcx
	subq	%r9, %rcx
	cmpq	%rcx, %r14
	jle	.LBB41_6
	xorl	%r13d, %r13d
	leaq	96(%rsp), %rbp
	leaq	80(%rsp), %r15
	movq	%rbx, %rdx
	xorl	%r12d, %r12d
	.p2align	4, 0x90
.LBB41_8:
	cmpl	$0, 56(%rsi)
	jne	.LBB41_9
	testq	%r9, %r9
	je	.LBB41_11
	js	.LBB41_35
	cmpq	%rax, %r9
	jg	.LBB41_35
	cmpq	%r14, %rcx
	cmovlq	%rcx, %r14
	movq	%r14, %rbx
	testq	%r14, %r14
	cmovleq	%r13, %rbx
	jle	.LBB41_20
	addq	(%rsi), %r9
	movq	%r9, %rcx
	movq	%rbx, %r8
	callq	memmove
	movq	48(%rsi), %r9
.LBB41_20:
	addq	%rbx, %r9
	movq	%r9, 48(%rsi)
	movq	%rsi, %rcx
	movq	%rdi, %rdx
	callq	bufio.writer_flush
.LBB41_21:
	movq	88(%rsp), %rax
	testq	%rbx, %rbx
	js	.LBB41_36
	movq	%rax, %r14
	subq	%rbx, %r14
	jl	.LBB41_36
	addq	%rbx, %r12
	addq	80(%rsp), %rbx
	movq	%rbx, 80(%rsp)
	movq	%r14, 88(%rsp)
	movq	8(%rsi), %rax
	movq	48(%rsi), %r9
	movq	%rax, %rcx
	subq	%r9, %rcx
	movq	%rbx, %rdx
	cmpq	%rcx, %r14
	jg	.LBB41_8
	jmp	.LBB41_24
	.p2align	4, 0x90
.LBB41_11:
	movq	32(%rsi), %rax
	testq	%rax, %rax
	je	.LBB41_12
	movq	40(%rsi), %rcx
	movq	$0, 96(%rsp)
	movq	%rdi, 48(%rsp)
	movq	%rbp, 40(%rsp)
	movq	$0, 32(%rsp)
	movl	$4, %edx
	movq	%r15, %r8
	xorl	%r9d, %r9d
	callq	*%rax
	movq	96(%rsp), %rbx
	movl	%eax, 56(%rsi)
	testq	%rbx, %rbx
	jns	.LBB41_21
	testl	%eax, %eax
	jne	.LBB41_21
	jmp	.LBB41_15
.LBB41_12:
	movl	$-1, 56(%rsi)
	xorl	%ebx, %ebx
	jmp	.LBB41_21
.LBB41_2:
	xorl	%edi, %edi
	movl	$786, %r12d
	jmp	.LBB41_3
.LBB41_34:
	movl	$-1, %edi
	xorl	%r12d, %r12d
	jmp	.LBB41_3
.LBB41_6:
	xorl	%r12d, %r12d
	jmp	.LBB41_24
.LBB41_9:
	movq	%rdx, %rbx
.LBB41_24:
	movl	56(%rsi), %edi
	testl	%edi, %edi
	jne	.LBB41_3
	testq	%r9, %r9
	js	.LBB41_37
	movq	%rax, %rcx
	subq	%r9, %rcx
	jl	.LBB41_37
	cmpq	%r14, %rcx
	cmovlq	%rcx, %r14
	xorl	%edi, %edi
	testq	%r14, %r14
	cmovleq	%rdi, %r14
	jle	.LBB41_29
	addq	(%rsi), %r9
	movq	%r9, %rcx
	movq	%rbx, %rdx
	movq	%r14, %r8
	callq	memmove
	movq	48(%rsi), %r9
.LBB41_29:
	addq	%r14, %r9
	movq	%r9, 48(%rsi)
	addq	%r14, %r12
.LBB41_3:
	movq	216(%rsp), %rax
	movq	%r12, (%rax)
	movl	%edi, %eax
	addq	$104, %rsp
	popq	%rbx
	popq	%rbp
	popq	%rdi
	popq	%rsi
	popq	%r12
	popq	%r13
	popq	%r14
	popq	%r15
	retq
.LBB41_15:
	movl	$11, 56(%rsi)
	movl	$11, %edi
	jmp	.LBB41_3
.LBB41_36:
	movq	%rax, 40(%rsp)
	movq	%rax, 32(%rsp)
	leaq	.Lggv$59(%rip), %rcx
	movl	$108, %edx
	movl	$8, %r8d
	movq	%rbx, %r9
	callq	runtime.slice_handle_error
.LBB41_35:
	movq	%rax, 40(%rsp)
	movq	%rax, 32(%rsp)
	leaq	.Lggv$59(%rip), %rcx
	movl	$103, %edx
	movl	$18, %r8d
	callq	runtime.slice_handle_error
.LBB41_37:
	movq	%rax, 40(%rsp)
	movq	%rax, 32(%rsp)
	leaq	.Lggv$59(%rip), %rcx
	movl	$113, %edx
	movl	$17, %r8d
	callq	runtime.slice_handle_error
	int3
	.section	.rdata,"dr"
	.p2align	2, 0x0
.LJTI41_0:
	.long	.LBB41_4-.LJTI41_0
	.long	.LBB41_34-.LJTI41_0
	.long	.LBB41_34-.LJTI41_0
	.long	.LBB41_5-.LJTI41_0
	.long	.LBB41_34-.LJTI41_0
	.long	.LBB41_34-.LJTI41_0
	.long	.LBB41_34-.LJTI41_0
	.long	.LBB41_30-.LJTI41_0
	.long	.LBB41_2-.LJTI41_0
	.text
	.seh_endproc

	.def	runtime.type_assertion_check2;
	.scl	3;
	.type	32;
	.endef
	.p2align	4, 0x90
runtime.type_assertion_check2:
.seh_proc runtime.type_assertion_check2
	subq	$56, %rsp
	.seh_stackalloc 56
	.seh_endprologue
	testb	%cl, %cl
	je	.LBB42_2
	addq	$56, %rsp
	retq
.LBB42_2:
	movq	112(%rsp), %rcx
	movq	104(%rsp), %r10
	movq	96(%rsp), %rax
	movq	%rcx, 40(%rsp)
	movq	%r10, 32(%rsp)
	movq	%rdx, %rcx
	movl	%r8d, %edx
	movl	%r9d, %r8d
	movq	%rax, %r9
	callq	"runtime.type_assertion_check2.handle_error-1"
	int3
	.seh_endproc

	.def	runtime.print_typeid;
	.scl	3;
	.type	32;
	.endef
	.p2align	4, 0x90
runtime.print_typeid:
.seh_proc runtime.print_typeid
	subq	$40, %rsp
	.seh_stackalloc 40
	.seh_endprologue
	testq	%rcx, %rcx
	je	.LBB43_1
	callq	runtime.__type_info_of
	movq	%rax, %rcx
	addq	$40, %rsp
	jmp	runtime.print_type
.LBB43_1:
	leaq	.Lggv$249(%rip), %rcx
	addq	$40, %rsp
	jmp	runtime.print_string
	.seh_endproc

	.def	runtime.print_type;
	.scl	3;
	.type	32;
	.endef
runtime.print_type:
.seh_proc runtime.print_type
	pushq	%r15
	.seh_pushreg %r15
	pushq	%r14
	.seh_pushreg %r14
	pushq	%r13
	.seh_pushreg %r13
	pushq	%r12
	.seh_pushreg %r12
	pushq	%rsi
	.seh_pushreg %rsi
	pushq	%rdi
	.seh_pushreg %rdi
	pushq	%rbp
	.seh_pushreg %rbp
	pushq	%rbx
	.seh_pushreg %rbx
	subq	$200, %rsp
	.seh_stackalloc 200
	.seh_endprologue
	testq	%rcx, %rcx
	je	.LBB44_43
	movq	%rcx, %rsi
	leaq	.LJTI44_0(%rip), %rbx
	movabsq	$9223372036854775807, %r12
.LBB44_2:
	movq	104(%rsi), %rax
	decq	%rax
	cmpq	$28, %rax
	ja	.LBB44_89
	leaq	32(%rsi), %rdx
	movslq	(%rbx,%rax,4), %rax
	addq	%rbx, %rax
	jmpq	*%rax
.LBB44_4:
	movups	(%rdx), %xmm0
	movaps	%xmm0, 64(%rsp)
	leaq	.Lggv$16c(%rip), %rcx
	callq	runtime.print_string
	movq	72(%rsp), %rcx
	callq	runtime.print_type
	leaq	.Lggv$16d(%rip), %rcx
	jmp	.LBB44_22
.LBB44_5:
	movups	(%rdx), %xmm0
	movups	16(%rdx), %xmm1
	movups	32(%rdx), %xmm2
	movaps	%xmm2, 96(%rsp)
	movaps	%xmm1, 80(%rsp)
	movaps	%xmm0, 64(%rsp)
	leaq	.Lggv$16f(%rip), %rcx
	callq	runtime.print_string
	movq	88(%rsp), %rcx
	callq	runtime.print_u64
	leaq	.Lggv$244(%rip), %rcx
	callq	runtime.print_string
	movq	96(%rsp), %rcx
	callq	runtime.print_u64
	leaq	.Lggv$171(%rip), %rcx
	jmp	.LBB44_22
.LBB44_6:
	movq	48(%rdx), %rax
	movq	%rax, 112(%rsp)
	movups	(%rdx), %xmm0
	movups	16(%rdx), %xmm1
	movups	32(%rdx), %xmm2
	movaps	%xmm2, 96(%rsp)
	movaps	%xmm1, 80(%rsp)
	movaps	%xmm0, 64(%rsp)
	testb	%al, %al
	je	.LBB44_8
	leaq	.Lggv$143(%rip), %rcx
	callq	runtime.print_string
.LBB44_8:
	movb	$91, %cl
	callq	runtime.print_byte
	movq	72(%rsp), %rcx
	callq	runtime.print_type
	jmp	.LBB44_31
.LBB44_9:
	movq	16(%rdx), %rax
	movq	%rax, 80(%rsp)
	movups	(%rdx), %xmm0
	movaps	%xmm0, 64(%rsp)
	leaq	.Lggv$135(%rip), %rcx
	callq	runtime.print_string
	movq	64(%rsp), %rax
	testq	%rax, %rax
	je	.LBB44_34
	movq	104(%rax), %rcx
	xorl	%r14d, %r14d
	movl	$0, %r15d
	cmpq	$18, %rcx
	jne	.LBB44_12
	movq	32(%rax), %r15
	movq	40(%rax), %r14
.LBB44_12:
	addq	$32, %rax
	cmpq	$18, %rcx
	sete	%cl
	movq	%rax, 48(%rsp)
	movabsq	$3602879701896396869, %rax
	movq	%rax, 40(%rsp)
	movabsq	$1369094286720630814, %rax
	movq	%rax, 32(%rsp)
	leaq	.Lggv$f8(%rip), %rdx
	movl	$327, %r8d
	movl	$9, %r9d
	callq	runtime.type_assertion_check2
	movb	$40, %cl
	callq	runtime.print_byte
	leaq	.Lggv$1df(%rip), %rsi
	testq	%r14, %r14
	jle	.LBB44_35
	negq	%r14
	movq	$-1, %r13
.LBB44_14:
	movq	8(%r15,%r13,8), %rdi
	cmpq	%r12, %r13
	jae	.LBB44_16
	leaq	.Lggv$244(%rip), %rcx
	callq	runtime.print_string
.LBB44_16:
	movq	%rdi, %rcx
	callq	runtime.print_type
	leaq	(%r14,%r13), %rax
	incq	%rax
	incq	%r13
	cmpq	$-1, %rax
	jne	.LBB44_14
	jmp	.LBB44_35
.LBB44_17:
	movq	(%rdx), %rsi
	movq	%rsi, 64(%rsp)
	leaq	.Lggv$133(%rip), %rcx
	jmp	.LBB44_37
.LBB44_18:
	movups	(%rdx), %xmm0
	movaps	%xmm0, 64(%rsp)
	leaq	.Lggv$147(%rip), %rcx
	jmp	.LBB44_22
.LBB44_19:
	movq	(%rdx), %rsi
	movq	%rsi, 64(%rsp)
	testq	%rsi, %rsi
	je	.LBB44_93
	leaq	.Lggv$132(%rip), %rcx
	jmp	.LBB44_37
.LBB44_21:
	movups	(%rdx), %xmm0
	movaps	%xmm0, 64(%rsp)
	leaq	.Lggv$146(%rip), %rcx
.LBB44_22:
	callq	runtime.print_string
	jmp	.LBB44_23
.LBB44_24:
	movq	16(%rdx), %rax
	movq	%rax, 80(%rsp)
	movups	(%rdx), %xmm0
	movaps	%xmm0, 64(%rsp)
	movb	$91, %cl
	callq	runtime.print_byte
	jmp	.LBB44_30
.LBB44_25:
	leaq	64(%rsp), %rdi
	movl	$72, %r8d
	movq	%rdi, %rcx
	callq	memcpy
	movzbl	45(%rdi), %eax
	cmpl	$3, %eax
	je	.LBB44_40
	cmpl	$2, %eax
	je	.LBB44_39
	cmpl	$1, %eax
	jne	.LBB44_101
	leaq	.Lggv$149(%rip), %rcx
	callq	runtime.print_string
	movslq	112(%rsp), %rcx
	callq	runtime.print_u64
	movb	$93, %cl
	callq	runtime.print_byte
	jmp	.LBB44_42
.LBB44_29:
	movq	16(%rdx), %rax
	movq	%rax, 80(%rsp)
	movups	(%rdx), %xmm0
	movaps	%xmm0, 64(%rsp)
	leaq	.Lggv$169(%rip), %rcx
	callq	runtime.print_string
.LBB44_30:
	movq	80(%rsp), %rcx
	callq	runtime.print_u64
.LBB44_31:
	movb	$93, %cl
	callq	runtime.print_byte
.LBB44_23:
	movq	64(%rsp), %rsi
	jmp	.LBB44_38
.LBB44_32:
	movq	(%rdx), %rsi
	movq	%rsi, 64(%rsp)
	leaq	.Lggv$134(%rip), %rcx
	jmp	.LBB44_37
.LBB44_33:
	movq	16(%rdx), %rax
	movq	%rax, 80(%rsp)
	movups	(%rdx), %xmm0
	movaps	%xmm0, 64(%rsp)
	leaq	.Lggv$148(%rip), %rcx
	callq	runtime.print_string
	movq	64(%rsp), %rcx
	callq	runtime.print_type
	movb	$93, %cl
	callq	runtime.print_byte
	movq	72(%rsp), %rsi
	jmp	.LBB44_38
.LBB44_34:
	leaq	.Lggv$136(%rip), %rsi
.LBB44_35:
	movq	%rsi, %rcx
	callq	runtime.print_string
	movq	72(%rsp), %rsi
	testq	%rsi, %rsi
	je	.LBB44_89
	leaq	.Lggv$13b(%rip), %rcx
.LBB44_37:
	callq	runtime.print_string
	jmp	.LBB44_38
.LBB44_39:
	leaq	.Lggv$14a(%rip), %rcx
	jmp	.LBB44_41
.LBB44_40:
	leaq	.Lggv$14b(%rip), %rcx
.LBB44_41:
	callq	runtime.print_string
.LBB44_42:
	movq	120(%rsp), %rsi
.LBB44_38:
	testq	%rsi, %rsi
	jne	.LBB44_2
.LBB44_43:
	leaq	.Lggv$249(%rip), %rcx
.LBB44_44:
	addq	$200, %rsp
	popq	%rbx
	popq	%rbp
	popq	%rdi
	popq	%rsi
	popq	%r12
	popq	%r13
	popq	%r14
	popq	%r15
	jmp	runtime.print_string
.LBB44_45:
	movups	(%rdx), %xmm0
	movups	16(%rdx), %xmm1
	movups	32(%rdx), %xmm2
	movaps	%xmm2, 96(%rsp)
	movaps	%xmm1, 80(%rsp)
	movaps	%xmm0, 64(%rsp)
	leaq	.Lggv$155(%rip), %rcx
	callq	runtime.print_string
	cmpb	$0, 104(%rsp)
	je	.LBB44_47
	leaq	.Lggv$158(%rip), %rcx
	callq	runtime.print_string
	movq	8(%rsi), %rcx
	callq	runtime.print_u64
	leaq	.Lggv$16d(%rip), %rcx
	callq	runtime.print_string
.LBB44_47:
	cmpb	$0, 105(%rsp)
	je	.LBB44_49
	leaq	.Lggv$156(%rip), %rcx
	callq	runtime.print_string
.LBB44_49:
	movb	$123, %cl
	callq	runtime.print_byte
	movq	72(%rsp), %rbx
	testq	%rbx, %rbx
	jle	.LBB44_66
	movabsq	$9223372036854775807, %r14
	movq	64(%rsp), %r15
	negq	%rbx
	movq	$-1, %r12
	leaq	.Lggv$244(%rip), %rsi
.LBB44_51:
	movq	8(%r15,%r12,8), %rdi
	cmpq	%r14, %r12
	jae	.LBB44_53
	movq	%rsi, %rcx
	callq	runtime.print_string
.LBB44_53:
	movq	%rdi, %rcx
	callq	runtime.print_type
	leaq	(%rbx,%r12), %rax
	incq	%rax
	incq	%r12
	cmpq	$-1, %rax
	jne	.LBB44_51
	jmp	.LBB44_66
.LBB44_54:
	leaq	.Lggv$12d(%rip), %rcx
	jmp	.LBB44_44
.LBB44_55:
	movzwl	32(%rsi), %eax
	movw	%ax, 64(%rsp)
	movq	24(%rsi), %rcx
	movabsq	$72057594037928016, %rdx
	cmpq	%rdx, %rcx
	je	.LBB44_117
	movabsq	$72057594037928080, %rdx
	cmpq	%rdx, %rcx
	je	.LBB44_116
	movabsq	$4683743612465315844, %rdx
	cmpq	%rdx, %rcx
	jne	.LBB44_118
	leaq	.Lggv$122(%rip), %rcx
	jmp	.LBB44_44
.LBB44_59:
	leaq	.Lggv$12b(%rip), %rcx
	jmp	.LBB44_73
.LBB44_60:
	movb	32(%rsi), %al
	movb	%al, 64(%rsp)
	movb	$102, %cl
	jmp	.LBB44_119
.LBB44_61:
	movq	32(%rdx), %rax
	movq	%rax, 96(%rsp)
	movups	(%rdx), %xmm0
	movups	16(%rdx), %xmm1
	movaps	%xmm1, 80(%rsp)
	movaps	%xmm0, 64(%rsp)
	leaq	.Lggv$15b(%rip), %rcx
	callq	runtime.print_string
	movq	64(%rsp), %rcx
	callq	runtime.print_type
	leaq	.Lggv$163(%rip), %rcx
	callq	runtime.print_string
	movq	80(%rsp), %rbx
	testq	%rbx, %rbx
	jle	.LBB44_66
	movabsq	$9223372036854775807, %r14
	movq	72(%rsp), %r15
	negq	%rbx
	addq	$8, %r15
	movq	$-1, %r12
	leaq	.Lggv$244(%rip), %rsi
	leaq	168(%rsp), %rdi
.LBB44_63:
	movups	-8(%r15), %xmm0
	movups	%xmm0, 168(%rsp)
	cmpq	%r14, %r12
	jae	.LBB44_65
	movq	%rsi, %rcx
	callq	runtime.print_string
.LBB44_65:
	movq	%rdi, %rcx
	callq	runtime.print_string
	leaq	(%rbx,%r12), %rax
	incq	%rax
	incq	%r12
	addq	$16, %r15
	cmpq	$-1, %rax
	jne	.LBB44_63
.LBB44_66:
	leaq	.Lggv$1da(%rip), %rcx
	jmp	.LBB44_44
.LBB44_67:
	movups	(%rdx), %xmm0
	movups	16(%rdx), %xmm1
	movups	32(%rdx), %xmm2
	leaq	64(%rsp), %rcx
	movaps	%xmm2, 32(%rcx)
	movaps	%xmm1, 16(%rcx)
	movaps	%xmm0, (%rcx)
	callq	runtime.print_string
	jmp	.LBB44_89
.LBB44_68:
	leaq	.Lggv$12f(%rip), %rcx
	jmp	.LBB44_44
.LBB44_69:
	leaq	.Lggv$130(%rip), %rcx
	jmp	.LBB44_44
.LBB44_70:
	movabsq	$504403158265495599, %rax
	cmpq	%rax, 24(%rsi)
	jne	.LBB44_95
	leaq	.Lggv$12e(%rip), %rcx
	jmp	.LBB44_44
.LBB44_72:
	leaq	.Lggv$12a(%rip), %rcx
.LBB44_73:
	callq	runtime.print_string
	jmp	.LBB44_120
.LBB44_74:
	leaq	.Lggv$127(%rip), %rcx
	jmp	.LBB44_44
.LBB44_75:
	movq	48(%rdx), %rax
	movq	%rax, 112(%rsp)
	movups	(%rdx), %xmm0
	movups	16(%rdx), %xmm1
	movups	32(%rdx), %xmm2
	movaps	%xmm2, 96(%rsp)
	movaps	%xmm1, 80(%rsp)
	movaps	%xmm0, 64(%rsp)
	leaq	.Lggv$162(%rip), %rcx
	callq	runtime.print_string
	movq	64(%rsp), %rcx
	callq	runtime.print_type
	leaq	.Lggv$163(%rip), %rcx
	callq	runtime.print_string
	movq	72(%rsp), %r12
	movq	112(%rsp), %rsi
	leaq	.Lggv$f8(%rip), %rcx
	movl	$473, %edx
	movl	$28, %r8d
	movq	%rsi, %r9
	callq	runtime.multi_pointer_slice_expr_error
	testq	%rsi, %rsi
	jle	.LBB44_114
	movq	80(%rsp), %rbp
	movq	88(%rsp), %rdi
	negq	%rsi
	addq	$8, %r12
	movq	$-1, %r13
	leaq	152(%rsp), %rbx
	leaq	.Lggv$18b(%rip), %r14
	leaq	.Lggv$167(%rip), %r15
.LBB44_77:
	movups	-8(%r12), %xmm0
	movups	%xmm0, 152(%rsp)
	movabsq	$9223372036854775807, %rax
	cmpq	%rax, %r13
	jae	.LBB44_79
	leaq	.Lggv$244(%rip), %rcx
	callq	runtime.print_string
.LBB44_79:
	movq	%rbx, %rcx
	callq	runtime.print_string
	movq	%r14, %rcx
	callq	runtime.print_string
	movq	8(%rbp,%r13,8), %rcx
	callq	runtime.print_type
	movq	%r15, %rcx
	callq	runtime.print_string
	movq	8(%rdi,%r13,8), %rcx
	callq	runtime.print_u64
	leaq	(%rsi,%r13), %rax
	incq	%rax
	incq	%r13
	addq	$16, %r12
	cmpq	$-1, %rax
	jne	.LBB44_77
	jmp	.LBB44_114
.LBB44_80:
	movups	(%rdx), %xmm0
	movups	16(%rdx), %xmm1
	movaps	%xmm1, 80(%rsp)
	movaps	%xmm0, 64(%rsp)
	movq	88(%rsp), %r13
	cmpq	$1, %r13
	je	.LBB44_82
	movb	$40, %cl
	callq	runtime.print_byte
	testq	%r13, %r13
	jle	.LBB44_94
.LBB44_82:
	movq	80(%rsp), %rdi
	movq	64(%rsp), %r14
	movq	72(%rsp), %r15
	addq	$8, %rdi
	xorl	%esi, %esi
	leaq	.Lggv$f8(%rip), %rbx
.LBB44_83:
	leaq	-1(%rsi), %rax
	movq	-8(%rdi), %rcx
	movq	(%rdi), %rbp
	movq	%rcx, 136(%rsp)
	movq	%rbp, 144(%rsp)
	movabsq	$9223372036854775807, %rcx
	cmpq	%rcx, %rax
	jae	.LBB44_85
	leaq	.Lggv$244(%rip), %rcx
	callq	runtime.print_string
.LBB44_85:
	movq	%r15, 32(%rsp)
	movq	%rbx, %rcx
	movl	$345, %edx
	movl	$20, %r8d
	movq	%rsi, %r9
	callq	runtime.bounds_check_error
	movq	(%r14,%rsi,8), %r12
	testq	%rbp, %rbp
	jle	.LBB44_87
	leaq	136(%rsp), %rcx
	callq	runtime.print_string
	leaq	.Lggv$18b(%rip), %rcx
	callq	runtime.print_string
.LBB44_87:
	movq	%r12, %rcx
	callq	runtime.print_type
	incq	%rsi
	addq	$16, %rdi
	cmpq	%rsi, %r13
	jne	.LBB44_83
	cmpq	$1, %r13
	jne	.LBB44_94
.LBB44_89:
	addq	$200, %rsp
	popq	%rbx
	popq	%rbp
	popq	%rdi
	popq	%rsi
	popq	%r12
	popq	%r13
	popq	%r14
	popq	%r15
	retq
.LBB44_90:
	movups	(%rdx), %xmm0
	movups	16(%rdx), %xmm1
	movaps	%xmm1, 80(%rsp)
	movaps	%xmm0, 64(%rsp)
	leaq	.Lggv$15e(%rip), %rcx
	callq	runtime.print_string
	movq	64(%rsp), %rsi
	movq	%rsi, %rcx
	callq	runtime.type_info_base
	movq	104(%rax), %rax
	cmpq	$3, %rax
	je	.LBB44_96
	cmpq	$21, %rax
	jne	.LBB44_97
	movq	%rsi, %rcx
	callq	runtime.print_type
	jmp	.LBB44_98
.LBB44_93:
	leaq	.Lggv$131(%rip), %rcx
	jmp	.LBB44_44
.LBB44_94:
	leaq	.Lggv$1df(%rip), %rcx
	jmp	.LBB44_44
.LBB44_95:
	movb	$98, %cl
	jmp	.LBB44_119
.LBB44_96:
	movl	80(%rsp), %ecx
	callq	runtime.print_encoded_rune
	leaq	.Lggv$f4(%rip), %rcx
	callq	runtime.print_string
	movl	88(%rsp), %ecx
	callq	runtime.print_encoded_rune
	jmp	.LBB44_98
.LBB44_97:
	movq	80(%rsp), %rcx
	callq	runtime.print_i64
	leaq	.Lggv$f4(%rip), %rcx
	callq	runtime.print_string
	movq	88(%rsp), %rcx
	callq	runtime.print_i64
.LBB44_98:
	movq	72(%rsp), %rsi
	testq	%rsi, %rsi
	je	.LBB44_100
	leaq	.Lggv$161(%rip), %rcx
	callq	runtime.print_string
	movq	%rsi, %rcx
	callq	runtime.print_type
.LBB44_100:
	movb	$93, %cl
	jmp	.LBB44_115
.LBB44_101:
	leaq	.Lggv$14c(%rip), %rcx
	callq	runtime.print_string
	movb	108(%rsp), %bl
	testb	$1, %bl
	je	.LBB44_103
	leaq	.Lggv$14d(%rip), %rcx
	callq	runtime.print_string
.LBB44_103:
	testb	$2, %bl
	je	.LBB44_105
	leaq	.Lggv$14e(%rip), %rcx
	callq	runtime.print_string
.LBB44_105:
	testb	$4, %bl
	je	.LBB44_107
	leaq	.Lggv$14f(%rip), %rcx
	callq	runtime.print_string
.LBB44_107:
	testb	$8, %bl
	je	.LBB44_109
	leaq	.Lggv$158(%rip), %rcx
	callq	runtime.print_string
	movq	8(%rsi), %rcx
	callq	runtime.print_u64
	leaq	.Lggv$16d(%rip), %rcx
	callq	runtime.print_string
.LBB44_109:
	movb	$123, %cl
	callq	runtime.print_byte
	movslq	104(%rsp), %rsi
	movq	72(%rsp), %r15
	leaq	.Lggv$f8(%rip), %rcx
	movl	$413, %edx
	movl	$28, %r8d
	movq	%rsi, %r9
	callq	runtime.multi_pointer_slice_expr_error
	testq	%rsi, %rsi
	jle	.LBB44_114
	movabsq	$9223372036854775807, %r12
	movq	64(%rsp), %r13
	negq	%rsi
	addq	$8, %r15
	movq	$-1, %rbp
	leaq	.Lggv$244(%rip), %rdi
	leaq	184(%rsp), %rbx
	leaq	.Lggv$18b(%rip), %r14
.LBB44_111:
	movups	-8(%r15), %xmm0
	movups	%xmm0, 184(%rsp)
	cmpq	%r12, %rbp
	jae	.LBB44_113
	movq	%rdi, %rcx
	callq	runtime.print_string
.LBB44_113:
	movq	%rbx, %rcx
	callq	runtime.print_string
	movq	%r14, %rcx
	callq	runtime.print_string
	movq	8(%r13,%rbp,8), %rcx
	callq	runtime.print_type
	leaq	(%rsi,%rbp), %rax
	incq	%rax
	incq	%rbp
	addq	$16, %r15
	cmpq	$-1, %rax
	jne	.LBB44_111
.LBB44_114:
	movb	$125, %cl
.LBB44_115:
	addq	$200, %rsp
	popq	%rbx
	popq	%rbp
	popq	%rdi
	popq	%rsi
	popq	%r12
	popq	%r13
	popq	%r14
	popq	%r15
	jmp	runtime.print_byte
.LBB44_116:
	leaq	.Lggv$123(%rip), %rcx
	jmp	.LBB44_44
.LBB44_117:
	leaq	.Lggv$124(%rip), %rcx
	jmp	.LBB44_44
.LBB44_118:
	testb	%al, %al
	movl	$117, %eax
	movl	$105, %ecx
	cmovel	%eax, %ecx
.LBB44_119:
	callq	runtime.print_byte
.LBB44_120:
	movq	(%rsi), %rcx
	shlq	$3, %rcx
	addq	$200, %rsp
	popq	%rbx
	popq	%rbp
	popq	%rdi
	popq	%rsi
	popq	%r12
	popq	%r13
	popq	%r14
	popq	%r15
	jmp	runtime.print_u64
	.section	.rdata,"dr"
	.p2align	2, 0x0
.LJTI44_0:
	.long	.LBB44_67-.LJTI44_0
	.long	.LBB44_55-.LJTI44_0
	.long	.LBB44_74-.LJTI44_0
	.long	.LBB44_60-.LJTI44_0
	.long	.LBB44_72-.LJTI44_0
	.long	.LBB44_59-.LJTI44_0
	.long	.LBB44_54-.LJTI44_0
	.long	.LBB44_70-.LJTI44_0
	.long	.LBB44_68-.LJTI44_0
	.long	.LBB44_69-.LJTI44_0
	.long	.LBB44_19-.LJTI44_0
	.long	.LBB44_17-.LJTI44_0
	.long	.LBB44_9-.LJTI44_0
	.long	.LBB44_24-.LJTI44_0
	.long	.LBB44_6-.LJTI44_0
	.long	.LBB44_21-.LJTI44_0
	.long	.LBB44_18-.LJTI44_0
	.long	.LBB44_80-.LJTI44_0
	.long	.LBB44_25-.LJTI44_0
	.long	.LBB44_45-.LJTI44_0
	.long	.LBB44_61-.LJTI44_0
	.long	.LBB44_33-.LJTI44_0
	.long	.LBB44_90-.LJTI44_0
	.long	.LBB44_29-.LJTI44_0
	.long	.LBB44_4-.LJTI44_0
	.long	.LBB44_4-.LJTI44_0
	.long	.LBB44_5-.LJTI44_0
	.long	.LBB44_32-.LJTI44_0
	.long	.LBB44_75-.LJTI44_0
	.text
	.seh_endproc

	.def	reflect.is_rune;
	.scl	3;
	.type	32;
	.endef
	.p2align	4, 0x90
reflect.is_rune:
	testq	%rcx, %rcx
	je	.LBB45_1
	.p2align	4, 0x90
.LBB45_4:
	movq	104(%rcx), %rax
	cmpq	$1, %rax
	jne	.LBB45_5
	movq	48(%rcx), %rcx
	jmp	.LBB45_4
.LBB45_5:
	cmpq	$3, %rax
	sete	%al
	retq
.LBB45_1:
	xorl	%eax, %eax
	retq

	.def	io.write_byte;
	.scl	3;
	.type	32;
	.endef
	.p2align	4, 0x90
io.write_byte:
.seh_proc io.write_byte
	pushq	%rsi
	.seh_pushreg %rsi
	subq	$96, %rsp
	.seh_stackalloc 96
	.seh_endprologue
	movb	%dl, 71(%rsp)
	leaq	71(%rsp), %rax
	movq	%rax, 80(%rsp)
	movq	$1, 88(%rsp)
	movq	(%rcx), %rax
	testq	%rax, %rax
	je	.LBB46_1
	movq	%r8, %rsi
	movq	8(%rcx), %rcx
	movq	$0, 72(%rsp)
	movq	%r9, 48(%rsp)
	leaq	72(%rsp), %rdx
	movq	%rdx, 40(%rsp)
	movq	$0, 32(%rsp)
	leaq	80(%rsp), %r8
	movl	$4, %edx
	xorl	%r9d, %r9d
	callq	*%rax
	testq	%rsi, %rsi
	je	.LBB46_4
	movq	72(%rsp), %rcx
	addq	%rcx, (%rsi)
	jmp	.LBB46_4
.LBB46_1:
	movl	$-1, %eax
.LBB46_4:
	addq	$96, %rsp
	popq	%rsi
	retq
	.seh_endproc

	.def	io.write_quoted_rune;
	.scl	3;
	.type	32;
	.endef
	.p2align	4, 0x90
io.write_quoted_rune:
.seh_proc io.write_quoted_rune
	pushq	%r15
	.seh_pushreg %r15
	pushq	%r14
	.seh_pushreg %r14
	pushq	%rsi
	.seh_pushreg %rsi
	pushq	%rdi
	.seh_pushreg %rdi
	pushq	%rbx
	.seh_pushreg %rbx
	subq	$96, %rsp
	.seh_stackalloc 96
	.seh_endprologue
	movq	%r8, %rsi
	movq	%rcx, %rdi
	movb	$39, 63(%rsp)
	leaq	63(%rsp), %r15
	movq	%r15, 80(%rsp)
	movq	$1, 88(%rsp)
	movq	(%rcx), %rax
	testq	%rax, %rax
	je	.LBB47_1
	movq	8(%rdi), %rcx
	movq	$0, 64(%rsp)
	movq	%rsi, 48(%rsp)
	leaq	64(%rsp), %r8
	movq	%r8, 40(%rsp)
	movq	$0, 32(%rsp)
	leaq	80(%rsp), %r8
	movl	%edx, %ebx
	movl	$4, %edx
	xorl	%r9d, %r9d
	callq	*%rax
	movl	%ebx, %edx
	xorl	%r14d, %r14d
	testl	%eax, %eax
	sete	%r14b
	jmp	.LBB47_3
.LBB47_1:
	xorl	%r14d, %r14d
.LBB47_3:
	movq	$0, 72(%rsp)
	movq	%rsi, 32(%rsp)
	leaq	72(%rsp), %r9
	movq	%rdi, %rcx
	movb	$39, %r8b
	callq	io.write_escaped_rune
	movq	72(%rsp), %rbx
	movb	$39, 63(%rsp)
	movq	%r15, 80(%rsp)
	movq	$1, 88(%rsp)
	movq	(%rdi), %rax
	testq	%rax, %rax
	je	.LBB47_4
	movq	8(%rdi), %rcx
	movq	$0, 64(%rsp)
	movq	%rsi, 48(%rsp)
	leaq	64(%rsp), %rdx
	movq	%rdx, 40(%rsp)
	movq	$0, 32(%rsp)
	leaq	80(%rsp), %r8
	movl	$4, %edx
	xorl	%r9d, %r9d
	callq	*%rax
	xorl	%ecx, %ecx
	testl	%eax, %eax
	sete	%cl
	jmp	.LBB47_6
.LBB47_4:
	xorl	%ecx, %ecx
.LBB47_6:
	addq	%r14, %rbx
	addq	%rcx, %rbx
	movq	%rbx, %rax
	addq	$96, %rsp
	popq	%rbx
	popq	%rdi
	popq	%rsi
	popq	%r14
	popq	%r15
	retq
	.seh_endproc

	.def	io.write_string;
	.scl	3;
	.type	32;
	.endef
	.p2align	4, 0x90
io.write_string:
.seh_proc io.write_string
	pushq	%rsi
	.seh_pushreg %rsi
	pushq	%rdi
	.seh_pushreg %rdi
	subq	$72, %rsp
	.seh_stackalloc 72
	.seh_endprologue
	movq	%r9, %rsi
	movq	(%rcx), %rax
	testq	%rax, %rax
	je	.LBB48_1
	movq	%r8, %rdi
	movq	%rdx, %r8
	movq	128(%rsp), %rdx
	movq	8(%rcx), %rcx
	movq	$0, 64(%rsp)
	movq	%rdx, 48(%rsp)
	leaq	64(%rsp), %rdx
	movq	%rdx, 40(%rsp)
	movq	$0, 32(%rsp)
	movl	$4, %edx
	xorl	%r9d, %r9d
	callq	*%rax
	movq	64(%rsp), %rcx
	testq	%rdi, %rdi
	je	.LBB48_4
	addq	%rcx, (%rdi)
	jmp	.LBB48_4
.LBB48_1:
	movl	$-1, %eax
	xorl	%ecx, %ecx
.LBB48_4:
	movq	%rcx, (%rsi)
	addq	$72, %rsp
	popq	%rdi
	popq	%rsi
	retq
	.seh_endproc

	.def	strconv_decimal.shift_left;
	.scl	3;
	.type	32;
	.endef
	.p2align	4, 0x90
strconv_decimal.shift_left:
	pushq	%r14
	pushq	%rsi
	pushq	%rdi
	pushq	%rbx
	movq	%rdx, %r9
	movq	%rcx, %r8
	leaq	(%rdx,%rdx,2), %rcx
	leaq	"strconv_decimal._shift_left_offsets-5539"(%rip), %rdx
	movq	(%rdx,%rcx,8), %r11
	movq	384(%r8), %rsi
	leaq	(,%r9,8), %rax
	testq	%rax, %rax
	je	.LBB49_7
	movq	16(%rdx,%rcx,8), %rax
	leaq	(%rdx,%rcx,8), %rcx
	addq	$8, %rcx
	xorl	%edx, %edx
	testq	%rsi, %rsi
	movl	$0, %r10d
	cmovgq	%rsi, %r10
	.p2align	4, 0x90
.LBB49_3:
	cmpq	%rdx, %r10
	je	.LBB49_6
	movzbl	(%r8,%rdx), %ebx
	movq	(%rcx), %rdi
	movzbl	(%rdi,%rdx), %edi
	cmpb	%dil, %bl
	jne	.LBB49_5
	incq	%rdx
	cmpq	%rdx, %rax
	jne	.LBB49_3
	jmp	.LBB49_7
.LBB49_5:
	jae	.LBB49_7
.LBB49_6:
	decq	%r11
.LBB49_7:
	movq	%rsi, %rax
	decq	%rax
	js	.LBB49_20
	leaq	-1(%r11), %rdi
	leaq	(%r8,%r11), %r14
	decq	%r14
	xorl	%edx, %edx
	movabsq	$-3689348814741910323, %rbx
	jmp	.LBB49_9
	.p2align	4, 0x90
.LBB49_10:
	addb	$48, %al
	movb	%al, (%r14,%rsi)
.LBB49_16:
	decq	%rsi
	testq	%rsi, %rsi
	jle	.LBB49_11
.LBB49_9:
	movzbl	-1(%r8,%rsi), %r10d
	addq	$-48, %r10
	movl	%r9d, %ecx
	shlq	%cl, %r10
	addq	%rdx, %r10
	movq	%r10, %rax
	mulq	%rbx
	shrq	$3, %rdx
	leaq	(%rdx,%rdx), %rax
	leaq	(%rax,%rax,4), %rcx
	movq	%r10, %rax
	subq	%rcx, %rax
	leaq	(%rdi,%rsi), %rcx
	cmpq	$383, %rcx
	jle	.LBB49_10
	testq	%rax, %rax
	je	.LBB49_16
	movb	$1, 401(%r8)
	jmp	.LBB49_16
.LBB49_11:
	cmpq	$10, %r10
	jae	.LBB49_12
.LBB49_20:
	addq	%r11, 392(%r8)
	movq	384(%r8), %rcx
	xorl	%edx, %edx
	testq	%rcx, %rcx
	cmovgq	%rcx, %rdx
	cmpq	$384, %rdx
	movl	$384, %eax
	cmovbq	%rdx, %rax
	movq	%rax, 384(%r8)
	testq	%rcx, %rcx
	jle	.LBB49_24
	decq	%rax
	.p2align	4, 0x90
.LBB49_22:
	cmpb	$48, (%r8,%rax)
	jne	.LBB49_25
	movq	%rax, 384(%r8)
	leaq	-1(%rax), %rcx
	incq	%rax
	cmpq	$1, %rax
	movq	%rcx, %rax
	ja	.LBB49_22
.LBB49_24:
	movq	$0, 392(%r8)
.LBB49_25:
	popq	%rbx
	popq	%rdi
	popq	%rsi
	popq	%r14
	retq
	.p2align	4, 0x90
.LBB49_13:
	addb	$48, %al
	movb	%al, (%r8,%rdi)
.LBB49_19:
	decq	%rdi
	cmpq	$9, %rcx
	jbe	.LBB49_20
.LBB49_12:
	movq	%rdx, %rcx
	movq	%rdx, %rax
	mulq	%rbx
	shrq	$3, %rdx
	leaq	(%rdx,%rdx), %rax
	leaq	(%rax,%rax,4), %r9
	movq	%rcx, %rax
	subq	%r9, %rax
	cmpq	$383, %rdi
	jle	.LBB49_13
	testq	%rax, %rax
	je	.LBB49_19
	movb	$1, 401(%r8)
	jmp	.LBB49_19

	.def	io.write_rune;
	.scl	3;
	.type	32;
	.endef
	.p2align	4, 0x90
io.write_rune:
.seh_proc io.write_rune
	pushq	%rsi
	.seh_pushreg %rsi
	pushq	%rdi
	.seh_pushreg %rdi
	pushq	%rbx
	.seh_pushreg %rbx
	subq	$112, %rsp
	.seh_stackalloc 112
	.seh_endprologue
	movq	%r9, %rdi
	movq	%r8, %rsi
	movq	176(%rsp), %rax
	cmpl	$127, %edx
	jg	.LBB50_8
	movb	%dl, 67(%rsp)
	leaq	67(%rsp), %rdx
	movq	%rdx, 72(%rsp)
	movq	$1, 80(%rsp)
	movq	(%rcx), %r10
	testq	%r10, %r10
	je	.LBB50_2
	movq	8(%rcx), %rcx
	movq	$0, 88(%rsp)
	movq	%rax, 48(%rsp)
	leaq	88(%rsp), %rax
	movq	%rax, 40(%rsp)
	movq	$0, 32(%rsp)
	leaq	72(%rsp), %r8
	movl	$4, %edx
	xorl	%r9d, %r9d
	callq	*%r10
	xorl	%ecx, %ecx
	testl	%eax, %eax
	sete	%cl
	movq	%rcx, (%rdi)
	jne	.LBB50_7
	testq	%rsi, %rsi
	je	.LBB50_6
	incq	(%rsi)
	jmp	.LBB50_6
.LBB50_8:
	cmpl	$2047, %edx
	ja	.LBB50_10
	movl	%edx, %r9d
	shrl	$6, %r9d
	orb	$-64, %r9b
	movl	$2, %r10d
	xorl	%r8d, %r8d
	xorl	%r11d, %r11d
	jmp	.LBB50_13
.LBB50_10:
	movl	%edx, %r8d
	andl	$2095104, %r8d
	cmpl	$55296, %r8d
	movl	$65533, %r9d
	movl	%edx, %r8d
	cmovel	%r9d, %r8d
	cmpl	$1114112, %edx
	cmovael	%r9d, %r8d
	movl	%r8d, %r9d
	cmpl	$65535, %edx
	ja	.LBB50_12
	shrl	$12, %r9d
	orb	$-32, %r9b
	movl	%r8d, %edx
	shrl	$6, %edx
	andb	$63, %r8b
	orb	$-128, %r8b
	movl	$3, %r10d
	xorl	%r11d, %r11d
	jmp	.LBB50_13
.LBB50_12:
	shrl	$18, %r9d
	orb	$-16, %r9b
	movl	%r8d, %edx
	shrl	$12, %edx
	movl	%r8d, %ebx
	shrl	$6, %ebx
	andb	$63, %bl
	orb	$-128, %bl
	andb	$63, %r8b
	movl	%r8d, %r11d
	orb	$-128, %r11b
	movl	$4, %r10d
	movl	%ebx, %r8d
.LBB50_13:
	andb	$63, %dl
	orb	$-128, %dl
	movb	%r9b, 68(%rsp)
	movb	%dl, 69(%rsp)
	movb	%r8b, 70(%rsp)
	movb	%r11b, 71(%rsp)
	leaq	68(%rsp), %rdx
	movq	%rdx, 96(%rsp)
	movq	%r10, 104(%rsp)
	movq	(%rcx), %r10
	testq	%r10, %r10
	je	.LBB50_2
	movq	8(%rcx), %rcx
	movq	$0, 72(%rsp)
	movq	%rax, 48(%rsp)
	leaq	72(%rsp), %rax
	movq	%rax, 40(%rsp)
	movq	$0, 32(%rsp)
	leaq	96(%rsp), %r8
	movl	$4, %edx
	xorl	%r9d, %r9d
	callq	*%r10
	movq	72(%rsp), %rcx
	movq	%rcx, (%rdi)
	testl	%eax, %eax
	jne	.LBB50_7
	testq	%rsi, %rsi
	je	.LBB50_6
	addq	%rcx, (%rsi)
.LBB50_6:
	xorl	%eax, %eax
	jmp	.LBB50_7
.LBB50_2:
	movq	$0, (%rdi)
	movl	$-1, %eax
.LBB50_7:
	addq	$112, %rsp
	popq	%rbx
	popq	%rdi
	popq	%rsi
	retq
	.seh_endproc

	.def	strconv_decimal.shift;
	.scl	3;
	.type	32;
	.endef
	.p2align	4, 0x90
strconv_decimal.shift:
.seh_proc strconv_decimal.shift
	pushq	%rsi
	.seh_pushreg %rsi
	pushq	%rdi
	.seh_pushreg %rdi
	subq	$40, %rsp
	.seh_stackalloc 40
	.seh_endprologue
	cmpq	$0, 384(%rcx)
	je	.LBB51_11
	movq	%rdx, %rdi
	movq	%rcx, %rsi
	testq	%rdx, %rdx
	jle	.LBB51_4
	cmpq	$61, %rdi
	jb	.LBB51_3
	.p2align	4, 0x90
.LBB51_7:
	movl	$60, %edx
	movq	%rsi, %rcx
	callq	strconv_decimal.shift_left
	leaq	-60(%rdi), %rdx
	cmpq	$120, %rdi
	movq	%rdx, %rdi
	ja	.LBB51_7
	jmp	.LBB51_8
.LBB51_4:
	js	.LBB51_5
.LBB51_11:
	addq	$40, %rsp
	popq	%rdi
	popq	%rsi
	retq
.LBB51_3:
	movq	%rdi, %rdx
.LBB51_8:
	movq	%rsi, %rcx
	addq	$40, %rsp
	popq	%rdi
	popq	%rsi
	jmp	strconv_decimal.shift_left
.LBB51_5:
	cmpq	$-61, %rdi
	ja	.LBB51_6
	.p2align	4, 0x90
.LBB51_9:
	movl	$60, %edx
	movq	%rsi, %rcx
	callq	strconv_decimal.shift_right
	leaq	60(%rdi), %rdx
	cmpq	$-120, %rdi
	movq	%rdx, %rdi
	jb	.LBB51_9
	jmp	.LBB51_10
.LBB51_6:
	movq	%rdi, %rdx
.LBB51_10:
	negq	%rdx
	movq	%rsi, %rcx
	addq	$40, %rsp
	popq	%rdi
	popq	%rsi
	jmp	strconv_decimal.shift_right
	.seh_endproc

	.def	strconv_decimal.round;
	.scl	3;
	.type	32;
	.endef
	.p2align	4, 0x90
strconv_decimal.round:
.seh_proc strconv_decimal.round
	subq	$40, %rsp
	.seh_stackalloc 40
	.seh_endprologue
	testq	%rdx, %rdx
	js	.LBB52_20
	movq	%rdx, %r9
	movq	384(%rcx), %rdx
	cmpq	%r9, %rdx
	jle	.LBB52_20
	cmpq	$384, %r9
	jae	.LBB52_21
	movzbl	(%rcx,%r9), %r8d
	leaq	1(%r9), %rax
	cmpb	$53, %r8b
	jne	.LBB52_9
	cmpq	%rdx, %rax
	jne	.LBB52_9
	cmpb	$0, 401(%rcx)
	jne	.LBB52_11
	testq	%r9, %r9
	je	.LBB52_7
	movzbl	-1(%r9,%rcx), %edx
	andb	$1, %dl
	testb	%dl, %dl
	jne	.LBB52_11
.LBB52_15:
	movq	%r9, 384(%rcx)
	testq	%r9, %r9
	je	.LBB52_19
	decq	%r9
	.p2align	4, 0x90
.LBB52_17:
	cmpb	$48, (%rcx,%r9)
	jne	.LBB52_20
	movq	%r9, 384(%rcx)
	leaq	-1(%r9), %rax
	incq	%r9
	cmpq	$1, %r9
	movq	%rax, %r9
	ja	.LBB52_17
	jmp	.LBB52_19
.LBB52_9:
	cmpb	$53, %r8b
	setae	%dl
	testb	%dl, %dl
	je	.LBB52_15
	.p2align	4, 0x90
.LBB52_11:
	cmpq	$1, %rax
	je	.LBB52_14
	movzbl	-2(%rcx,%rax), %edx
	decq	%rax
	cmpb	$56, %dl
	ja	.LBB52_11
	incb	%dl
	movb	%dl, -1(%rcx,%rax)
	movq	%rax, 384(%rcx)
	jmp	.LBB52_20
.LBB52_14:
	movb	$49, (%rcx)
	movq	$1, 384(%rcx)
	incq	392(%rcx)
	jmp	.LBB52_20
.LBB52_7:
	movq	$0, 384(%rcx)
.LBB52_19:
	movq	$0, 392(%rcx)
.LBB52_20:
	addq	$40, %rsp
	retq
.LBB52_21:
	movq	$384, 32(%rsp)
	leaq	.Lggv$11b(%rip), %rcx
	movl	$446, %edx
	movl	$14, %r8d
	callq	"runtime.bounds_check_error.handle_error-0"
	int3
	.seh_endproc

	.def	reflect.is_enum;
	.scl	3;
	.type	32;
	.endef
	.p2align	4, 0x90
reflect.is_enum:
	testq	%rcx, %rcx
	je	.LBB53_1
	.p2align	4, 0x90
.LBB53_4:
	movq	104(%rcx), %rax
	cmpq	$1, %rax
	jne	.LBB53_5
	movq	48(%rcx), %rcx
	jmp	.LBB53_4
.LBB53_5:
	cmpq	$21, %rax
	sete	%al
	retq
.LBB53_1:
	xorl	%eax, %eax
	retq

	.def	runtime.map_kvh_data_dynamic;
	.scl	3;
	.type	32;
	.endef
	.p2align	4, 0x90
runtime.map_kvh_data_dynamic:
	pushq	%r15
	pushq	%r14
	pushq	%r12
	pushq	%rsi
	pushq	%rdi
	pushq	%rbx
	movq	(%rcx), %rsi
	movl	%esi, %ecx
	andl	$63, %ecx
	movl	$1, %r11d
	shlq	%cl, %r11
	andq	$-64, %rsi
	movq	(%rdx), %rdi
	movq	16(%rdi), %rbx
	movq	24(%rdi), %r10
	cmpq	$2, %r10
	je	.LBB54_3
	cmpq	$1, %r10
	jne	.LBB54_6
	shlq	%cl, %rbx
	addq	%rsi, %rbx
	movq	%rbx, %r10
	jmp	.LBB54_8
.LBB54_3:
	movq	%r11, %r10
	shrq	%r10
	imulq	%rbx, %r10
	addq	%rsi, %r10
	testq	%rcx, %rcx
	jne	.LBB54_4
	movq	(%rdi), %rax
	jmp	.LBB54_7
.LBB54_6:
	movq	%r11, %rax
	movq	%rdx, %r14
	xorl	%edx, %edx
	divq	%r10
	movq	%rdx, %r10
	movq	%r14, %rdx
	imulq	%rbx, %rax
	imulq	(%rdi), %r10
	addq	%rsi, %r10
	jmp	.LBB54_7
.LBB54_4:
	xorl	%eax, %eax
.LBB54_7:
	addq	%rax, %r10
.LBB54_8:
	movq	96(%rsp), %rdi
	movq	88(%rsp), %rbx
	movq	8(%rdx), %r15
	movq	16(%r15), %r14
	movq	24(%r15), %r12
	cmpq	$2, %r12
	je	.LBB54_11
	cmpq	$1, %r12
	jne	.LBB54_15
	shlq	%cl, %r14
	addq	%r10, %r14
	jmp	.LBB54_16
.LBB54_11:
	shrq	%r11
	imulq	%r11, %r14
	testq	%rcx, %rcx
	jne	.LBB54_12
	movq	(%r15), %rax
	jmp	.LBB54_14
.LBB54_15:
	movq	%r11, %rax
	xorl	%edx, %edx
	divq	%r12
	imulq	(%r15), %rdx
	imulq	%r14, %rax
	addq	%r10, %rdx
	addq	%rax, %rdx
	movq	%rdx, %r14
	jmp	.LBB54_16
.LBB54_12:
	xorl	%eax, %eax
.LBB54_14:
	addq	%r10, %rax
	addq	%rax, %r14
.LBB54_16:
	movl	$8, %eax
	shlq	%cl, %rax
	addq	%r14, %rax
	movq	%rsi, (%r8)
	movq	%r10, (%r9)
	movq	%r14, (%rbx)
	movq	%rax, (%rdi)
	popq	%rbx
	popq	%rdi
	popq	%rsi
	popq	%r12
	popq	%r14
	popq	%r15
	retq

	.def	reflect.write_type_writer;
	.scl	3;
	.type	32;
	.endef
	.p2align	4, 0x90
reflect.write_type_writer:
.seh_proc reflect.write_type_writer
	pushq	%r15
	.seh_pushreg %r15
	pushq	%r14
	.seh_pushreg %r14
	pushq	%r13
	.seh_pushreg %r13
	pushq	%r12
	.seh_pushreg %r12
	pushq	%rsi
	.seh_pushreg %rsi
	pushq	%rdi
	.seh_pushreg %rdi
	pushq	%rbp
	.seh_pushreg %rbp
	pushq	%rbx
	.seh_pushreg %rbx
	subq	$1256, %rsp
	.seh_stackalloc 1256
	.seh_endprologue
	movq	%r9, %r13
	movq	%r8, %rdi
	movq	%rcx, %rbx
	movq	1360(%rsp), %r12
	movq	$0, 64(%rsp)
	testq	%rdx, %rdx
	je	.LBB55_4
	movq	104(%rdx), %rcx
	decq	%rcx
	cmpq	$28, %rcx
	ja	.LBB55_212
	leaq	32(%rdx), %rax
	leaq	.LJTI55_0(%rip), %r8
	movslq	(%r8,%rcx,4), %rcx
	addq	%r8, %rcx
	jmpq	*%rcx
.LBB55_3:
	movups	(%rax), %xmm0
	movups	16(%rax), %xmm1
	movups	32(%rax), %xmm2
	movaps	%xmm2, 112(%rsp)
	movaps	%xmm1, 96(%rsp)
	movaps	%xmm0, 80(%rsp)
	movq	%r12, 32(%rsp)
	leaq	80(%rsp), %rdx
	leaq	64(%rsp), %r8
	leaq	1240(%rsp), %r9
	jmp	.LBB55_194
.LBB55_4:
	movq	%r12, 32(%rsp)
	leaq	.Lggv$249(%rip), %rdx
	leaq	64(%rsp), %r8
	leaq	1248(%rsp), %r9
	movq	%rbx, %rcx
	callq	io.write_string
	jmp	.LBB55_196
.LBB55_5:
	movq	(%rax), %rax
	movq	%rax, 80(%rsp)
	movq	%r12, 32(%rsp)
	leaq	.Lggv$134(%rip), %rdx
	leaq	64(%rsp), %r8
	leaq	1032(%rsp), %r9
	movq	%rbx, %rcx
	callq	io.write_string
	testl	%eax, %eax
	jne	.LBB55_196
	movq	80(%rsp), %rdx
	movq	%r12, 32(%rsp)
	leaq	64(%rsp), %r8
	leaq	1024(%rsp), %r9
	jmp	.LBB55_90
.LBB55_7:
	movups	(%rax), %xmm0
	movaps	%xmm0, 80(%rsp)
	movq	%r12, 32(%rsp)
	leaq	.Lggv$147(%rip), %rdx
	leaq	64(%rsp), %r8
	leaq	840(%rsp), %r9
	movq	%rbx, %rcx
	callq	io.write_string
	testl	%eax, %eax
	jne	.LBB55_196
	movq	80(%rsp), %rdx
	movq	%r12, 32(%rsp)
	leaq	64(%rsp), %r8
	leaq	832(%rsp), %r9
	jmp	.LBB55_90
.LBB55_9:
	movq	48(%rax), %rcx
	movq	%rcx, 128(%rsp)
	movups	(%rax), %xmm0
	movups	16(%rax), %xmm1
	movups	32(%rax), %xmm2
	movaps	%xmm2, 112(%rsp)
	movaps	%xmm1, 96(%rsp)
	movaps	%xmm0, 80(%rsp)
	testb	%cl, %cl
	je	.LBB55_11
	movq	%r12, 32(%rsp)
	leaq	.Lggv$143(%rip), %rdx
	leaq	64(%rsp), %r8
	leaq	888(%rsp), %r9
	movq	%rbx, %rcx
	callq	io.write_string
	testl	%eax, %eax
	jne	.LBB55_196
.LBB55_11:
	movq	%r12, 32(%rsp)
	leaq	.Lggv$144(%rip), %rdx
	leaq	64(%rsp), %r8
	leaq	880(%rsp), %r9
	movq	%rbx, %rcx
	callq	io.write_string
	testl	%eax, %eax
	jne	.LBB55_196
	movq	88(%rsp), %rdx
	movq	$0, 248(%rsp)
	movq	%r12, 32(%rsp)
	leaq	64(%rsp), %r8
	leaq	248(%rsp), %r9
	movq	%rbx, %rcx
	callq	reflect.write_type_writer
	testl	%eax, %eax
	jne	.LBB55_196
	movq	%r12, 32(%rsp)
	leaq	.Lggv$171(%rip), %rdx
	leaq	64(%rsp), %r8
	leaq	872(%rsp), %r9
	movq	%rbx, %rcx
	callq	io.write_string
	testl	%eax, %eax
	jne	.LBB55_196
	movq	80(%rsp), %rdx
	movq	%r12, 32(%rsp)
	leaq	64(%rsp), %r8
	leaq	864(%rsp), %r9
	jmp	.LBB55_90
.LBB55_15:
	movq	(%rax), %rax
	movq	%rax, 80(%rsp)
	movq	%r12, 32(%rsp)
	leaq	.Lggv$133(%rip), %rdx
	leaq	64(%rsp), %r8
	leaq	1048(%rsp), %r9
	movq	%rbx, %rcx
	callq	io.write_string
	testl	%eax, %eax
	jne	.LBB55_196
	movq	80(%rsp), %rdx
	movq	%r12, 32(%rsp)
	leaq	64(%rsp), %r8
	leaq	1040(%rsp), %r9
	jmp	.LBB55_90
.LBB55_17:
	movq	%rdx, %r14
	movq	%r12, 32(%rsp)
	leaq	.Lggv$12a(%rip), %rdx
	leaq	64(%rsp), %r8
	leaq	1152(%rsp), %r9
	movq	%rbx, %rcx
	callq	io.write_string
	testl	%eax, %eax
	jne	.LBB55_196
	movq	(%r14), %rdx
	shlq	$3, %rdx
	movq	%r12, 32(%rsp)
	leaq	64(%rsp), %r8
	leaq	1144(%rsp), %r9
	jmp	.LBB55_143
.LBB55_19:
	movq	16(%rax), %rcx
	movq	%rcx, 96(%rsp)
	movups	(%rax), %xmm0
	movaps	%xmm0, 80(%rsp)
	movq	%r12, 32(%rsp)
	leaq	.Lggv$135(%rip), %rdx
	leaq	64(%rsp), %r8
	leaq	1016(%rsp), %r9
	movq	%rbx, %rcx
	callq	io.write_string
	testl	%eax, %eax
	jne	.LBB55_196
	movq	80(%rsp), %rcx
	testq	%rcx, %rcx
	je	.LBB55_185
	leaq	32(%rcx), %rax
	movq	104(%rcx), %rdx
	xorl	%r15d, %r15d
	movl	$0, %r14d
	cmpq	$18, %rdx
	jne	.LBB55_23
	movq	32(%rcx), %r14
	movq	40(%rcx), %r15
.LBB55_23:
	cmpq	$18, %rdx
	sete	%cl
	movq	%rax, 48(%rsp)
	movabsq	$3602879701896396869, %rax
	movq	%rax, 40(%rsp)
	movabsq	$1369094286720630814, %rax
	movq	%rax, 32(%rsp)
	leaq	.Lggv$164(%rip), %rdx
	movl	$575, %r8d
	movl	$9, %r9d
	callq	runtime.type_assertion_check2
	movq	%r12, 32(%rsp)
	leaq	.Lggv$13c(%rip), %rdx
	leaq	64(%rsp), %r8
	leaq	1000(%rsp), %r9
	movq	%rbx, %rcx
	callq	io.write_string
	testl	%eax, %eax
	jne	.LBB55_196
	movq	%r13, %rsi
	movq	%rdi, 72(%rsp)
	movq	%r12, %rdi
	xorl	%r13d, %r13d
	testq	%r15, %r15
	cmovgq	%r15, %r13
	negq	%r13
	movq	$-1, %rbp
	leaq	64(%rsp), %r12
	jmp	.LBB55_26
.LBB55_25:
	movq	$0, 264(%rsp)
	movq	%rdi, 32(%rsp)
	movq	%rbx, %rcx
	movq	%r15, %rdx
	movq	%r12, %r8
	leaq	264(%rsp), %r9
	callq	reflect.write_type_writer
	incq	%rbp
	testl	%eax, %eax
	jne	.LBB55_127
.LBB55_26:
	movq	%r13, %rax
	addq	%rbp, %rax
	cmpq	$-1, %rax
	je	.LBB55_199
	movq	8(%r14,%rbp,8), %r15
	movabsq	$9223372036854775807, %rax
	cmpq	%rax, %rbp
	jae	.LBB55_25
	movq	%rdi, 32(%rsp)
	movq	%rbx, %rcx
	leaq	.Lggv$244(%rip), %rdx
	movq	%r12, %r8
	leaq	992(%rsp), %r9
	callq	io.write_string
	testl	%eax, %eax
	je	.LBB55_25
	jmp	.LBB55_127
.LBB55_29:
	movq	%r12, 32(%rsp)
	leaq	.Lggv$130(%rip), %rdx
	leaq	64(%rsp), %r8
	leaq	1080(%rsp), %r9
	jmp	.LBB55_194
.LBB55_30:
	movups	(%rax), %xmm0
	movaps	%xmm0, 80(%rsp)
	movq	%r12, 32(%rsp)
	leaq	.Lggv$16c(%rip), %rdx
	leaq	64(%rsp), %r8
	leaq	360(%rsp), %r9
	movq	%rbx, %rcx
	callq	io.write_string
	testl	%eax, %eax
	jne	.LBB55_196
	movq	88(%rsp), %rdx
	movq	$0, 168(%rsp)
	movq	%r12, 32(%rsp)
	leaq	64(%rsp), %r8
	leaq	168(%rsp), %r9
	movq	%rbx, %rcx
	callq	reflect.write_type_writer
	testl	%eax, %eax
	jne	.LBB55_196
	movq	%r12, 32(%rsp)
	leaq	.Lggv$16d(%rip), %rdx
	leaq	64(%rsp), %r8
	leaq	352(%rsp), %r9
	movq	%rbx, %rcx
	callq	io.write_string
	testl	%eax, %eax
	jne	.LBB55_196
	movq	80(%rsp), %rdx
	movq	%r12, 32(%rsp)
	leaq	64(%rsp), %r8
	leaq	344(%rsp), %r9
	jmp	.LBB55_90
.LBB55_34:
	movups	(%rax), %xmm0
	movaps	%xmm0, 80(%rsp)
	movq	%r12, 32(%rsp)
	leaq	.Lggv$16c(%rip), %rdx
	leaq	64(%rsp), %r8
	leaq	384(%rsp), %r9
	movq	%rbx, %rcx
	callq	io.write_string
	testl	%eax, %eax
	jne	.LBB55_196
	movq	88(%rsp), %rdx
	movq	$0, 176(%rsp)
	movq	%r12, 32(%rsp)
	leaq	64(%rsp), %r8
	leaq	176(%rsp), %r9
	movq	%rbx, %rcx
	callq	reflect.write_type_writer
	testl	%eax, %eax
	jne	.LBB55_196
	movq	%r12, 32(%rsp)
	leaq	.Lggv$16d(%rip), %rdx
	leaq	64(%rsp), %r8
	leaq	376(%rsp), %r9
	movq	%rbx, %rcx
	callq	io.write_string
	testl	%eax, %eax
	jne	.LBB55_196
	movq	80(%rsp), %rdx
	movq	%r12, 32(%rsp)
	leaq	64(%rsp), %r8
	leaq	368(%rsp), %r9
	jmp	.LBB55_90
.LBB55_38:
	movq	%r12, 32(%rsp)
	leaq	.Lggv$127(%rip), %rdx
	leaq	64(%rsp), %r8
	leaq	1184(%rsp), %r9
	jmp	.LBB55_194
.LBB55_39:
	movups	(%rax), %xmm0
	movaps	%xmm0, 80(%rsp)
	movq	%r12, 32(%rsp)
	leaq	.Lggv$146(%rip), %rdx
	leaq	64(%rsp), %r8
	leaq	856(%rsp), %r9
	movq	%rbx, %rcx
	callq	io.write_string
	testl	%eax, %eax
	jne	.LBB55_196
	movq	80(%rsp), %rdx
	movq	%r12, 32(%rsp)
	leaq	64(%rsp), %r8
	leaq	848(%rsp), %r9
	jmp	.LBB55_90
.LBB55_41:
	movq	%rdx, %r14
	movzbl	(%rax), %eax
	movb	%al, 80(%rsp)
	leaq	64(%rsp), %r8
	movq	%rbx, %rcx
	movb	$102, %dl
	movq	%r12, %r9
	callq	io.write_byte
	testl	%eax, %eax
	jne	.LBB55_196
	movq	(%r14), %rdx
	shlq	$3, %rdx
	movq	%r12, 32(%rsp)
	leaq	64(%rsp), %r8
	leaq	1176(%rsp), %r9
	movq	%rbx, %rcx
	callq	io.write_i64
	testl	%eax, %eax
	jne	.LBB55_196
	movzbl	80(%rsp), %eax
	cmpl	$2, %eax
	je	.LBB55_193
	cmpl	$1, %eax
	jne	.LBB55_212
	movq	%r12, 32(%rsp)
	leaq	.Lggv$128(%rip), %rdx
	leaq	64(%rsp), %r8
	leaq	1168(%rsp), %r9
	jmp	.LBB55_194
.LBB55_46:
	movabsq	$504403158265495599, %rax
	cmpq	%rax, 24(%rdx)
	jne	.LBB55_141
	movq	%r12, 32(%rsp)
	leaq	.Lggv$12e(%rip), %rdx
	leaq	64(%rsp), %r8
	leaq	1104(%rsp), %r9
	jmp	.LBB55_194
.LBB55_48:
	movzwl	32(%rdx), %eax
	movw	%ax, 80(%rsp)
	movq	24(%rdx), %rcx
	movabsq	$72057594037928016, %r8
	cmpq	%r8, %rcx
	je	.LBB55_152
	movabsq	$72057594037928080, %r8
	cmpq	%r8, %rcx
	je	.LBB55_151
	movabsq	$4683743612465315844, %r8
	cmpq	%r8, %rcx
	jne	.LBB55_153
	movq	%r12, 32(%rsp)
	leaq	.Lggv$122(%rip), %rdx
	leaq	64(%rsp), %r8
	leaq	1232(%rsp), %r9
	jmp	.LBB55_194
.LBB55_52:
	movups	(%rax), %xmm0
	movups	16(%rax), %xmm1
	movaps	%xmm1, 96(%rsp)
	movaps	%xmm0, 80(%rsp)
	movq	104(%rsp), %rsi
	movl	$1, %ebp
	cmpq	$1, %rsi
	je	.LBB55_55
	movq	%r12, 32(%rsp)
	leaq	.Lggv$13c(%rip), %rdx
	leaq	64(%rsp), %r8
	leaq	960(%rsp), %r9
	movq	%rbx, %rcx
	callq	io.write_string
	testl	%eax, %eax
	jne	.LBB55_196
	movq	104(%rsp), %rbp
.LBB55_55:
	movq	%rsi, 160(%rsp)
	movq	%r13, 152(%rsp)
	movq	%rdi, 72(%rsp)
	movq	%r12, %rsi
	xorl	%r15d, %r15d
	testq	%rbp, %rbp
	cmovleq	%r15, %rbp
	movl	$8, %r14d
	leaq	64(%rsp), %r13
	jmp	.LBB55_57
.LBB55_56:
	movq	$0, 256(%rsp)
	movq	%rdi, 32(%rsp)
	movq	%rbx, %rcx
	movq	%r12, %rdx
	movq	%r13, %r8
	leaq	256(%rsp), %r9
	callq	reflect.write_type_writer
	incq	%r15
	addq	$16, %r14
	testl	%eax, %eax
	jne	.LBB55_63
.LBB55_57:
	cmpq	%r15, %rbp
	je	.LBB55_183
	leaq	-1(%r15), %rax
	movq	96(%rsp), %rcx
	movups	-8(%rcx,%r14), %xmm0
	movups	%xmm0, 272(%rsp)
	movabsq	$9223372036854775807, %rcx
	cmpq	%rcx, %rax
	jae	.LBB55_60
	movq	%rsi, 32(%rsp)
	movq	%rbx, %rcx
	leaq	.Lggv$244(%rip), %rdx
	movq	%r13, %r8
	leaq	952(%rsp), %r9
	callq	io.write_string
	testl	%eax, %eax
	jne	.LBB55_63
.LBB55_60:
	movq	80(%rsp), %r12
	movq	88(%rsp), %rax
	movq	%rax, 32(%rsp)
	leaq	.Lggv$164(%rip), %rcx
	movl	$597, %edx
	movl	$20, %r8d
	movq	%r15, %r9
	callq	runtime.bounds_check_error
	movq	(%r12,%r15,8), %r12
	cmpq	$0, 280(%rsp)
	movq	%rsi, %rdi
	jle	.LBB55_56
	movq	%rdi, 32(%rsp)
	movq	%rbx, %rcx
	leaq	272(%rsp), %rdx
	movq	%r13, %r8
	leaq	944(%rsp), %r9
	callq	io.write_string
	testl	%eax, %eax
	jne	.LBB55_63
	movq	%rdi, 32(%rsp)
	movq	%rbx, %rcx
	leaq	.Lggv$18b(%rip), %rdx
	movq	%r13, %r8
	leaq	936(%rsp), %r9
	callq	io.write_string
	testl	%eax, %eax
	je	.LBB55_56
.LBB55_63:
	movq	64(%rsp), %rcx
	movq	152(%rsp), %rdx
	movq	%rcx, (%rdx)
.LBB55_128:
	movq	72(%rsp), %rdi
	testq	%rdi, %rdi
	jne	.LBB55_197
	jmp	.LBB55_198
.LBB55_64:
	movq	32(%rax), %rcx
	movq	%rcx, 112(%rsp)
	movups	(%rax), %xmm0
	movups	16(%rax), %xmm1
	movaps	%xmm1, 96(%rsp)
	movaps	%xmm0, 80(%rsp)
	movq	%r12, 32(%rsp)
	leaq	.Lggv$15b(%rip), %rdx
	leaq	64(%rsp), %r8
	leaq	600(%rsp), %r9
	movq	%rbx, %rcx
	callq	io.write_string
	testl	%eax, %eax
	jne	.LBB55_196
	movq	80(%rsp), %rdx
	movq	$0, 216(%rsp)
	movq	%r12, 32(%rsp)
	leaq	64(%rsp), %r8
	leaq	216(%rsp), %r9
	movq	%rbx, %rcx
	callq	reflect.write_type_writer
	testl	%eax, %eax
	jne	.LBB55_196
	movq	%r12, 32(%rsp)
	leaq	.Lggv$163(%rip), %rdx
	leaq	64(%rsp), %r8
	leaq	592(%rsp), %r9
	movq	%rbx, %rcx
	callq	io.write_string
	testl	%eax, %eax
	jne	.LBB55_196
	movq	%r13, %rsi
	movq	%r12, %r15
	movq	96(%rsp), %rax
	xorl	%r13d, %r13d
	testq	%rax, %rax
	cmovgq	%rax, %r13
	negq	%r13
	movq	$-1, %r14
	movl	$8, %ebp
	leaq	64(%rsp), %r12
	jmp	.LBB55_138
.LBB55_68:
	movq	%rdx, %r14
	movq	%r12, 32(%rsp)
	leaq	.Lggv$12b(%rip), %rdx
	leaq	64(%rsp), %r8
	leaq	1136(%rsp), %r9
	movq	%rbx, %rcx
	callq	io.write_string
	testl	%eax, %eax
	jne	.LBB55_196
	movq	(%r14), %rdx
	shlq	$3, %rdx
	movq	%r12, 32(%rsp)
	leaq	64(%rsp), %r8
	leaq	1128(%rsp), %r9
	jmp	.LBB55_143
.LBB55_70:
	movq	16(%rax), %rcx
	movq	%rcx, 96(%rsp)
	movups	(%rax), %xmm0
	movaps	%xmm0, 80(%rsp)
	movq	%r12, 32(%rsp)
	leaq	.Lggv$148(%rip), %rdx
	leaq	64(%rsp), %r8
	leaq	824(%rsp), %r9
	movq	%rbx, %rcx
	callq	io.write_string
	testl	%eax, %eax
	jne	.LBB55_196
	movq	80(%rsp), %rdx
	movq	$0, 240(%rsp)
	movq	%r12, 32(%rsp)
	leaq	64(%rsp), %r8
	leaq	240(%rsp), %r9
	movq	%rbx, %rcx
	callq	reflect.write_type_writer
	testl	%eax, %eax
	jne	.LBB55_196
	leaq	64(%rsp), %r8
	movq	%rbx, %rcx
	movb	$93, %dl
	movq	%r12, %r9
	callq	io.write_byte
	testl	%eax, %eax
	jne	.LBB55_196
	movq	88(%rsp), %rdx
	movq	%r12, 32(%rsp)
	leaq	64(%rsp), %r8
	leaq	816(%rsp), %r9
	jmp	.LBB55_90
.LBB55_74:
	movq	16(%rax), %rcx
	movq	%rcx, 96(%rsp)
	movups	(%rax), %xmm0
	movaps	%xmm0, 80(%rsp)
	movq	%r12, 32(%rsp)
	leaq	.Lggv$144(%rip), %rdx
	leaq	64(%rsp), %r8
	leaq	920(%rsp), %r9
	movq	%rbx, %rcx
	callq	io.write_string
	testl	%eax, %eax
	jne	.LBB55_196
	movq	96(%rsp), %rdx
	movq	%r12, 32(%rsp)
	leaq	64(%rsp), %r8
	leaq	912(%rsp), %r9
	movq	%rbx, %rcx
	callq	io.write_i64
	testl	%eax, %eax
	jne	.LBB55_196
	movq	%r12, 32(%rsp)
	leaq	.Lggv$171(%rip), %rdx
	leaq	64(%rsp), %r8
	leaq	904(%rsp), %r9
	movq	%rbx, %rcx
	callq	io.write_string
	testl	%eax, %eax
	jne	.LBB55_196
	movq	80(%rsp), %rdx
	movq	%r12, 32(%rsp)
	leaq	64(%rsp), %r8
	leaq	896(%rsp), %r9
	jmp	.LBB55_90
.LBB55_78:
	movzbl	(%rax), %eax
	movb	%al, 80(%rsp)
	testb	%al, %al
	je	.LBB55_144
	movq	%r12, 32(%rsp)
	leaq	.Lggv$12c(%rip), %rdx
	leaq	64(%rsp), %r8
	leaq	1120(%rsp), %r9
	jmp	.LBB55_194
.LBB55_80:
	movups	(%rax), %xmm0
	movups	16(%rax), %xmm1
	movups	32(%rax), %xmm2
	movups	48(%rax), %xmm3
	movaps	%xmm2, 112(%rsp)
	movq	64(%rax), %rax
	movq	%rax, 144(%rsp)
	movaps	%xmm3, 128(%rsp)
	movaps	%xmm1, 96(%rsp)
	movaps	%xmm0, 80(%rsp)
	movzbl	125(%rsp), %eax
	cmpl	$3, %eax
	je	.LBB55_160
	cmpl	$2, %eax
	je	.LBB55_158
	cmpl	$1, %eax
	jne	.LBB55_163
	movq	%r12, 32(%rsp)
	leaq	.Lggv$149(%rip), %rdx
	leaq	64(%rsp), %r8
	leaq	808(%rsp), %r9
	movq	%rbx, %rcx
	callq	io.write_string
	testl	%eax, %eax
	jne	.LBB55_196
	movslq	128(%rsp), %rdx
	movq	%r12, 32(%rsp)
	leaq	800(%rsp), %r9
	movq	%rbx, %rcx
	xorl	%r8d, %r8d
	callq	io.write_i64
	testl	%eax, %eax
	jne	.LBB55_196
	leaq	64(%rsp), %r8
	movq	%rbx, %rcx
	movb	$93, %dl
	movq	%r12, %r9
	callq	io.write_byte
	testl	%eax, %eax
	jne	.LBB55_196
	movq	136(%rsp), %rdx
	movq	%r12, 32(%rsp)
	leaq	64(%rsp), %r8
	leaq	792(%rsp), %r9
	jmp	.LBB55_162
.LBB55_87:
	movq	(%rax), %rax
	movq	%rax, 80(%rsp)
	testq	%rax, %rax
	je	.LBB55_145
	movq	%r12, 32(%rsp)
	leaq	.Lggv$132(%rip), %rdx
	leaq	64(%rsp), %r8
	leaq	1064(%rsp), %r9
	movq	%rbx, %rcx
	callq	io.write_string
	testl	%eax, %eax
	jne	.LBB55_196
	movq	80(%rsp), %rdx
	movq	%r12, 32(%rsp)
	leaq	64(%rsp), %r8
	leaq	1056(%rsp), %r9
.LBB55_90:
	movq	%rbx, %rcx
	callq	reflect.write_type_writer
	jmp	.LBB55_195
.LBB55_91:
	movq	%r12, 32(%rsp)
	leaq	.Lggv$12f(%rip), %rdx
	leaq	64(%rsp), %r8
	leaq	1088(%rsp), %r9
	jmp	.LBB55_194
.LBB55_92:
	movups	(%rax), %xmm0
	movups	16(%rax), %xmm1
	movaps	%xmm1, 96(%rsp)
	movaps	%xmm0, 80(%rsp)
	movq	%r12, 32(%rsp)
	leaq	.Lggv$15e(%rip), %rdx
	leaq	64(%rsp), %r8
	leaq	552(%rsp), %r9
	movq	%rbx, %rcx
	callq	io.write_string
	testl	%eax, %eax
	jne	.LBB55_196
	movq	80(%rsp), %r15
	movq	%r15, %rcx
	callq	reflect.is_enum
	testb	%al, %al
	je	.LBB55_186
	movq	$0, 208(%rsp)
	movq	%r12, 32(%rsp)
	leaq	64(%rsp), %r8
	leaq	208(%rsp), %r9
	movq	%rbx, %rcx
	movq	%r15, %rdx
	callq	reflect.write_type_writer
.LBB55_95:
	testl	%eax, %eax
	jne	.LBB55_196
	cmpq	$0, 88(%rsp)
	je	.LBB55_99
	movq	%r12, 32(%rsp)
	leaq	.Lggv$161(%rip), %rdx
	leaq	64(%rsp), %r8
	leaq	496(%rsp), %r9
	movq	%rbx, %rcx
	callq	io.write_string
	testl	%eax, %eax
	jne	.LBB55_196
	movq	88(%rsp), %rdx
	movq	$0, 200(%rsp)
	movq	%r12, 32(%rsp)
	leaq	64(%rsp), %r8
	leaq	200(%rsp), %r9
	movq	%rbx, %rcx
	callq	reflect.write_type_writer
	testl	%eax, %eax
	jne	.LBB55_196
.LBB55_99:
	leaq	64(%rsp), %r8
	movq	%rbx, %rcx
	movb	$93, %dl
	movq	%r12, %r9
	callq	io.write_byte
	jmp	.LBB55_195
.LBB55_100:
	movq	%rdx, %r14
	movups	(%rax), %xmm0
	movups	16(%rax), %xmm1
	movups	32(%rax), %xmm2
	movaps	%xmm2, 112(%rsp)
	movaps	%xmm1, 96(%rsp)
	movaps	%xmm0, 80(%rsp)
	movq	%r12, 32(%rsp)
	leaq	.Lggv$155(%rip), %rdx
	leaq	64(%rsp), %r8
	leaq	656(%rsp), %r9
	movq	%rbx, %rcx
	callq	io.write_string
	testl	%eax, %eax
	jne	.LBB55_196
	cmpb	$0, 121(%rsp)
	je	.LBB55_103
	movq	%r12, 32(%rsp)
	leaq	.Lggv$156(%rip), %rdx
	leaq	64(%rsp), %r8
	leaq	648(%rsp), %r9
	movq	%rbx, %rcx
	callq	io.write_string
	testl	%eax, %eax
	jne	.LBB55_196
.LBB55_103:
	cmpb	$0, 122(%rsp)
	je	.LBB55_105
	movq	%r12, 32(%rsp)
	leaq	.Lggv$157(%rip), %rdx
	leaq	64(%rsp), %r8
	leaq	640(%rsp), %r9
	movq	%rbx, %rcx
	callq	io.write_string
	testl	%eax, %eax
	jne	.LBB55_196
.LBB55_105:
	cmpb	$0, 120(%rsp)
	je	.LBB55_109
	movq	%r12, 32(%rsp)
	leaq	.Lggv$158(%rip), %rdx
	leaq	64(%rsp), %r8
	leaq	632(%rsp), %r9
	movq	%rbx, %rcx
	callq	io.write_string
	testl	%eax, %eax
	jne	.LBB55_196
	movq	8(%r14), %rdx
	movq	%r12, 32(%rsp)
	leaq	64(%rsp), %r8
	leaq	624(%rsp), %r9
	movq	%rbx, %rcx
	callq	io.write_i64
	testl	%eax, %eax
	jne	.LBB55_196
	movq	%r12, 32(%rsp)
	leaq	.Lggv$16d(%rip), %rdx
	leaq	64(%rsp), %r8
	leaq	616(%rsp), %r9
	movq	%rbx, %rcx
	callq	io.write_string
	testl	%eax, %eax
	jne	.LBB55_196
.LBB55_109:
	leaq	64(%rsp), %r8
	movq	%rbx, %rcx
	movb	$123, %dl
	movq	%r12, %r9
	callq	io.write_byte
	testl	%eax, %eax
	jne	.LBB55_196
	movq	%r13, %rsi
	movq	%r12, %rbp
	movq	88(%rsp), %rax
	xorl	%r13d, %r13d
	testq	%rax, %rax
	cmovgq	%rax, %r13
	negq	%r13
	movq	$-1, %r14
	leaq	64(%rsp), %r12
	jmp	.LBB55_147
.LBB55_111:
	movq	16(%rax), %rcx
	movq	%rcx, 96(%rsp)
	movups	(%rax), %xmm0
	movaps	%xmm0, 80(%rsp)
	movq	%r12, 32(%rsp)
	leaq	.Lggv$169(%rip), %rdx
	leaq	64(%rsp), %r8
	leaq	408(%rsp), %r9
	movq	%rbx, %rcx
	callq	io.write_string
	testl	%eax, %eax
	jne	.LBB55_196
	movq	96(%rsp), %rdx
	movq	%r12, 32(%rsp)
	leaq	64(%rsp), %r8
	leaq	400(%rsp), %r9
	movq	%rbx, %rcx
	callq	io.write_i64
	testl	%eax, %eax
	jne	.LBB55_196
	leaq	64(%rsp), %r8
	movq	%rbx, %rcx
	movb	$93, %dl
	movq	%r12, %r9
	callq	io.write_byte
	testl	%eax, %eax
	jne	.LBB55_196
	movq	80(%rsp), %rdx
	movq	%r12, 32(%rsp)
	leaq	64(%rsp), %r8
	leaq	392(%rsp), %r9
	jmp	.LBB55_90
.LBB55_115:
	movq	48(%rax), %rcx
	movq	%rcx, 128(%rsp)
	movups	(%rax), %xmm0
	movups	16(%rax), %xmm1
	movups	32(%rax), %xmm2
	movaps	%xmm2, 112(%rsp)
	movaps	%xmm1, 96(%rsp)
	movaps	%xmm0, 80(%rsp)
	movq	%r12, 32(%rsp)
	leaq	.Lggv$162(%rip), %rdx
	leaq	64(%rsp), %r8
	leaq	488(%rsp), %r9
	movq	%rbx, %rcx
	callq	io.write_string
	testl	%eax, %eax
	jne	.LBB55_196
	movq	80(%rsp), %rdx
	movq	$0, 192(%rsp)
	movq	%r12, 32(%rsp)
	leaq	64(%rsp), %r8
	leaq	192(%rsp), %r9
	movq	%rbx, %rcx
	callq	reflect.write_type_writer
	testl	%eax, %eax
	jne	.LBB55_196
	movq	%r12, 32(%rsp)
	leaq	.Lggv$163(%rip), %rdx
	leaq	64(%rsp), %r8
	leaq	480(%rsp), %r9
	movq	%rbx, %rcx
	callq	io.write_string
	testl	%eax, %eax
	jne	.LBB55_196
	movq	%r13, %rsi
	movq	%rdi, 72(%rsp)
	movq	%r12, %r14
	movq	88(%rsp), %r13
	movq	128(%rsp), %r15
	leaq	.Lggv$164(%rip), %rcx
	movl	$724, %edx
	movl	$28, %r8d
	movq	%r15, %r9
	callq	runtime.multi_pointer_slice_expr_error
	xorl	%ebp, %ebp
	testq	%r15, %r15
	cmovgq	%r15, %rbp
	negq	%rbp
	addq	$8, %r13
	movq	$-1, %r15
	leaq	64(%rsp), %r12
.LBB55_119:
	leaq	(%r15,%rbp), %rax
	cmpq	$-1, %rax
	je	.LBB55_208
	movups	-8(%r13), %xmm0
	movups	%xmm0, 464(%rsp)
	movabsq	$9223372036854775807, %rax
	cmpq	%rax, %r15
	jae	.LBB55_122
	movq	%r14, 32(%rsp)
	movq	%rbx, %rcx
	leaq	.Lggv$244(%rip), %rdx
	movq	%r12, %r8
	leaq	456(%rsp), %r9
	callq	io.write_string
	testl	%eax, %eax
	jne	.LBB55_127
.LBB55_122:
	movq	%r14, %rdi
	movq	%r14, 32(%rsp)
	movq	%rbx, %rcx
	leaq	464(%rsp), %rdx
	movq	%r12, %r8
	leaq	448(%rsp), %r9
	callq	io.write_string
	testl	%eax, %eax
	jne	.LBB55_127
	movq	%rdi, 32(%rsp)
	movq	%rbx, %rcx
	leaq	.Lggv$18b(%rip), %rdx
	movq	%r12, %r8
	leaq	440(%rsp), %r9
	callq	io.write_string
	testl	%eax, %eax
	jne	.LBB55_127
	movq	96(%rsp), %rax
	movq	8(%rax,%r15,8), %rdx
	movq	$0, 184(%rsp)
	movq	%rdi, 32(%rsp)
	movq	%rbx, %rcx
	movq	%r12, %r8
	leaq	184(%rsp), %r9
	callq	reflect.write_type_writer
	testl	%eax, %eax
	jne	.LBB55_127
	movq	%rdi, 32(%rsp)
	movq	%rbx, %rcx
	leaq	.Lggv$167(%rip), %rdx
	movq	%r12, %r8
	leaq	432(%rsp), %r9
	callq	io.write_string
	testl	%eax, %eax
	jne	.LBB55_127
	movq	104(%rsp), %rax
	movq	8(%rax,%r15,8), %rdx
	movq	%rdi, 32(%rsp)
	movq	%rbx, %rcx
	movq	%r12, %r8
	leaq	424(%rsp), %r9
	callq	io.write_u64
	addq	$16, %r13
	incq	%r15
	testl	%eax, %eax
	je	.LBB55_119
.LBB55_127:
	movq	64(%rsp), %rcx
	movq	%rcx, (%rsi)
	jmp	.LBB55_128
.LBB55_129:
	movups	(%rax), %xmm0
	movups	16(%rax), %xmm1
	movups	32(%rax), %xmm2
	movaps	%xmm2, 112(%rsp)
	movaps	%xmm1, 96(%rsp)
	movaps	%xmm0, 80(%rsp)
	cmpb	$1, 120(%rsp)
	jne	.LBB55_131
	movq	%r12, 32(%rsp)
	leaq	.Lggv$16e(%rip), %rdx
	leaq	64(%rsp), %r8
	leaq	336(%rsp), %r9
	movq	%rbx, %rcx
	callq	io.write_string
	testl	%eax, %eax
	jne	.LBB55_196
.LBB55_131:
	movq	%r12, 32(%rsp)
	leaq	.Lggv$16f(%rip), %rdx
	leaq	64(%rsp), %r8
	leaq	328(%rsp), %r9
	movq	%rbx, %rcx
	callq	io.write_string
	testl	%eax, %eax
	jne	.LBB55_196
	movq	104(%rsp), %rdx
	movq	%r12, 32(%rsp)
	leaq	64(%rsp), %r8
	leaq	320(%rsp), %r9
	movq	%rbx, %rcx
	callq	io.write_i64
	testl	%eax, %eax
	jne	.LBB55_196
	movq	%r12, 32(%rsp)
	leaq	.Lggv$244(%rip), %rdx
	leaq	64(%rsp), %r8
	leaq	312(%rsp), %r9
	movq	%rbx, %rcx
	callq	io.write_string
	testl	%eax, %eax
	jne	.LBB55_196
	movq	112(%rsp), %rdx
	movq	%r12, 32(%rsp)
	leaq	64(%rsp), %r8
	leaq	304(%rsp), %r9
	movq	%rbx, %rcx
	callq	io.write_i64
	testl	%eax, %eax
	jne	.LBB55_196
	movq	%r12, 32(%rsp)
	leaq	.Lggv$171(%rip), %rdx
	leaq	64(%rsp), %r8
	leaq	296(%rsp), %r9
	movq	%rbx, %rcx
	callq	io.write_string
	testl	%eax, %eax
	jne	.LBB55_196
	movq	80(%rsp), %rdx
	movq	%r12, 32(%rsp)
	leaq	64(%rsp), %r8
	leaq	288(%rsp), %r9
	jmp	.LBB55_90
.LBB55_137:
	movq	%r15, 32(%rsp)
	movq	%rbx, %rcx
	leaq	576(%rsp), %rdx
	movq	%r12, %r8
	leaq	560(%rsp), %r9
	callq	io.write_string
	addq	$16, %rbp
	incq	%r14
	testl	%eax, %eax
	jne	.LBB55_150
.LBB55_138:
	leaq	(%r14,%r13), %rax
	cmpq	$-1, %rax
	je	.LBB55_203
	movq	88(%rsp), %rax
	movups	-8(%rax,%rbp), %xmm0
	movups	%xmm0, 576(%rsp)
	movabsq	$9223372036854775807, %rax
	cmpq	%rax, %r14
	jae	.LBB55_137
	movq	%r15, 32(%rsp)
	movq	%rbx, %rcx
	leaq	.Lggv$244(%rip), %rdx
	movq	%r12, %r8
	leaq	568(%rsp), %r9
	callq	io.write_string
	testl	%eax, %eax
	je	.LBB55_137
	jmp	.LBB55_150
.LBB55_141:
	movq	%rdx, %r14
	leaq	64(%rsp), %r8
	movq	%rbx, %rcx
	movb	$98, %dl
	movq	%r12, %r9
	callq	io.write_byte
	testl	%eax, %eax
	jne	.LBB55_196
	movq	(%r14), %rdx
	shlq	$3, %rdx
	movq	%r12, 32(%rsp)
	leaq	64(%rsp), %r8
	leaq	1096(%rsp), %r9
.LBB55_143:
	movq	%rbx, %rcx
	callq	io.write_i64
	jmp	.LBB55_195
.LBB55_144:
	movq	%r12, 32(%rsp)
	leaq	.Lggv$12d(%rip), %rdx
	leaq	64(%rsp), %r8
	leaq	1112(%rsp), %r9
	jmp	.LBB55_194
.LBB55_145:
	movq	%r12, 32(%rsp)
	leaq	.Lggv$131(%rip), %rdx
	leaq	64(%rsp), %r8
	leaq	1072(%rsp), %r9
	jmp	.LBB55_194
.LBB55_146:
	movq	$0, 224(%rsp)
	movq	%rbp, 32(%rsp)
	movq	%rbx, %rcx
	movq	%r15, %rdx
	movq	%r12, %r8
	leaq	224(%rsp), %r9
	callq	reflect.write_type_writer
	incq	%r14
	testl	%eax, %eax
	jne	.LBB55_150
.LBB55_147:
	leaq	(%r14,%r13), %rax
	cmpq	$-1, %rax
	je	.LBB55_209
	movq	80(%rsp), %rax
	movq	8(%rax,%r14,8), %r15
	movabsq	$9223372036854775807, %rax
	cmpq	%rax, %r14
	jae	.LBB55_146
	movq	%rbp, 32(%rsp)
	movq	%rbx, %rcx
	leaq	.Lggv$244(%rip), %rdx
	movq	%r12, %r8
	leaq	608(%rsp), %r9
	callq	io.write_string
	testl	%eax, %eax
	je	.LBB55_146
.LBB55_150:
	movq	64(%rsp), %rcx
	movq	%rcx, (%rsi)
	testq	%rdi, %rdi
	jne	.LBB55_197
	jmp	.LBB55_198
.LBB55_151:
	movq	%r12, 32(%rsp)
	leaq	.Lggv$123(%rip), %rdx
	leaq	64(%rsp), %r8
	leaq	1224(%rsp), %r9
	jmp	.LBB55_194
.LBB55_152:
	movq	%r12, 32(%rsp)
	leaq	.Lggv$124(%rip), %rdx
	leaq	64(%rsp), %r8
	leaq	1216(%rsp), %r9
	jmp	.LBB55_194
.LBB55_153:
	movq	%rdx, %r14
	testb	%al, %al
	movl	$117, %eax
	movl	$105, %edx
	cmovel	%eax, %edx
	leaq	64(%rsp), %r8
	movq	%rbx, %rcx
	movq	%r12, %r9
	callq	io.write_byte
	testl	%eax, %eax
	jne	.LBB55_196
	movq	(%r14), %rdx
	shlq	$3, %rdx
	movq	%r12, 32(%rsp)
	leaq	64(%rsp), %r8
	leaq	1208(%rsp), %r9
	movq	%rbx, %rcx
	callq	io.write_i64
	testl	%eax, %eax
	jne	.LBB55_196
	movzbl	81(%rsp), %eax
	cmpl	$2, %eax
	je	.LBB55_207
	cmpl	$1, %eax
	jne	.LBB55_212
	movq	%r12, 32(%rsp)
	leaq	.Lggv$128(%rip), %rdx
	leaq	64(%rsp), %r8
	leaq	1200(%rsp), %r9
	jmp	.LBB55_194
.LBB55_158:
	movq	%r12, 32(%rsp)
	leaq	.Lggv$14a(%rip), %rdx
	leaq	64(%rsp), %r8
	leaq	784(%rsp), %r9
	movq	%rbx, %rcx
	callq	io.write_string
	testl	%eax, %eax
	jne	.LBB55_196
	movq	136(%rsp), %rdx
	movq	%r12, 32(%rsp)
	leaq	64(%rsp), %r8
	leaq	776(%rsp), %r9
	jmp	.LBB55_162
.LBB55_160:
	movq	%r12, 32(%rsp)
	leaq	.Lggv$14b(%rip), %rdx
	leaq	64(%rsp), %r8
	leaq	768(%rsp), %r9
	movq	%rbx, %rcx
	callq	io.write_string
	testl	%eax, %eax
	jne	.LBB55_196
	movq	136(%rsp), %rdx
	movq	%r12, 32(%rsp)
	leaq	64(%rsp), %r8
	leaq	760(%rsp), %r9
.LBB55_162:
	movq	%rbx, %rcx
	callq	reflect.write_type_writer
	jmp	.LBB55_196
.LBB55_163:
	movq	%rdx, %r15
	movq	%r12, 32(%rsp)
	leaq	.Lggv$14c(%rip), %rdx
	leaq	64(%rsp), %r8
	leaq	752(%rsp), %r9
	movq	%rbx, %rcx
	callq	io.write_string
	testl	%eax, %eax
	jne	.LBB55_196
	movzbl	124(%rsp), %eax
	testb	$1, %al
	je	.LBB55_167
	movq	%r12, 32(%rsp)
	leaq	.Lggv$14d(%rip), %rdx
	leaq	64(%rsp), %r8
	leaq	744(%rsp), %r9
	movq	%rbx, %rcx
	callq	io.write_string
	testl	%eax, %eax
	jne	.LBB55_196
	movzbl	124(%rsp), %eax
.LBB55_167:
	testb	$2, %al
	je	.LBB55_170
	movq	%r12, 32(%rsp)
	leaq	.Lggv$14e(%rip), %rdx
	leaq	64(%rsp), %r8
	leaq	736(%rsp), %r9
	movq	%rbx, %rcx
	callq	io.write_string
	testl	%eax, %eax
	jne	.LBB55_196
	movzbl	124(%rsp), %eax
.LBB55_170:
	testb	$4, %al
	je	.LBB55_173
	movq	%r12, 32(%rsp)
	leaq	.Lggv$14f(%rip), %rdx
	leaq	64(%rsp), %r8
	leaq	728(%rsp), %r9
	movq	%rbx, %rcx
	callq	io.write_string
	testl	%eax, %eax
	jne	.LBB55_196
	movzbl	124(%rsp), %eax
.LBB55_173:
	testb	$8, %al
	jne	.LBB55_204
.LBB55_174:
	leaq	64(%rsp), %r8
	movq	%rbx, %rcx
	movb	$123, %dl
	movq	%r12, %r9
	callq	io.write_byte
	testl	%eax, %eax
	jne	.LBB55_196
	movq	%r13, 152(%rsp)
	movslq	120(%rsp), %r15
	movq	88(%rsp), %r14
	leaq	.Lggv$164(%rip), %rcx
	movl	$666, %edx
	movl	$28, %r8d
	movq	%r15, %r9
	callq	runtime.multi_pointer_slice_expr_error
	xorl	%r13d, %r13d
	testq	%r15, %r15
	cmovgq	%r15, %r13
	negq	%r13
	addq	$8, %r14
	movq	$-1, %rbp
	leaq	64(%rsp), %r12
	leaq	672(%rsp), %r15
.LBB55_176:
	movq	%r13, %rax
	addq	%rbp, %rax
	cmpq	$-1, %rax
	je	.LBB55_213
	movups	-8(%r14), %xmm0
	movups	%xmm0, 688(%rsp)
	movabsq	$9223372036854775807, %rax
	cmpq	%rax, %rbp
	jae	.LBB55_179
	movq	1360(%rsp), %rax
	movq	%rax, 32(%rsp)
	movq	%rbx, %rcx
	leaq	.Lggv$244(%rip), %rdx
	movq	%r12, %r8
	leaq	680(%rsp), %r9
	callq	io.write_string
	testl	%eax, %eax
	jne	.LBB55_182
.LBB55_179:
	movq	1360(%rsp), %rsi
	movq	%rsi, 32(%rsp)
	movq	%rbx, %rcx
	leaq	688(%rsp), %rdx
	movq	%r12, %r8
	movq	%r15, %r9
	callq	io.write_string
	testl	%eax, %eax
	jne	.LBB55_182
	movq	%rsi, 32(%rsp)
	movq	%rbx, %rcx
	leaq	.Lggv$18b(%rip), %rdx
	movq	%r12, %r8
	leaq	664(%rsp), %r9
	callq	io.write_string
	testl	%eax, %eax
	jne	.LBB55_182
	movq	80(%rsp), %rax
	movq	8(%rax,%rbp,8), %rdx
	movq	$0, 232(%rsp)
	movq	%rsi, 32(%rsp)
	movq	%rbx, %rcx
	movq	%r12, %r8
	leaq	232(%rsp), %r9
	callq	reflect.write_type_writer
	addq	$16, %r14
	incq	%rbp
	testl	%eax, %eax
	je	.LBB55_176
.LBB55_182:
	movq	64(%rsp), %rcx
	movq	152(%rsp), %rdx
	movq	%rcx, (%rdx)
	testq	%rdi, %rdi
	jne	.LBB55_197
	jmp	.LBB55_198
.LBB55_183:
	cmpq	$1, 160(%rsp)
	movq	72(%rsp), %rdi
	movq	152(%rsp), %r13
	je	.LBB55_212
	movq	%rsi, 32(%rsp)
	leaq	.Lggv$1df(%rip), %rdx
	leaq	64(%rsp), %r8
	leaq	928(%rsp), %r9
	jmp	.LBB55_194
.LBB55_185:
	movq	%r12, 32(%rsp)
	leaq	.Lggv$136(%rip), %rdx
	leaq	64(%rsp), %r8
	leaq	1008(%rsp), %r9
	movq	%rbx, %rcx
	callq	io.write_string
	testl	%eax, %eax
	jne	.LBB55_196
	jmp	.LBB55_200
.LBB55_186:
	movq	%r15, %rcx
	callq	reflect.is_rune
	movq	96(%rsp), %rdx
	testb	%al, %al
	je	.LBB55_190
	movq	%r12, 40(%rsp)
	leaq	544(%rsp), %rax
	movq	%rax, 32(%rsp)
	leaq	64(%rsp), %r9
	movq	%rbx, %rcx
	movb	$1, %r8b
	callq	io.write_encoded_rune
	testl	%eax, %eax
	jne	.LBB55_196
	movq	%r12, 32(%rsp)
	leaq	.Lggv$160(%rip), %rdx
	leaq	64(%rsp), %r8
	leaq	536(%rsp), %r9
	movq	%rbx, %rcx
	callq	io.write_string
	testl	%eax, %eax
	jne	.LBB55_196
	movl	104(%rsp), %edx
	movq	%r12, 40(%rsp)
	leaq	528(%rsp), %rax
	movq	%rax, 32(%rsp)
	leaq	64(%rsp), %r9
	movq	%rbx, %rcx
	movb	$1, %r8b
	callq	io.write_encoded_rune
	jmp	.LBB55_95
.LBB55_190:
	movq	%r12, 32(%rsp)
	leaq	64(%rsp), %r8
	leaq	520(%rsp), %r9
	movq	%rbx, %rcx
	callq	io.write_i64
	testl	%eax, %eax
	jne	.LBB55_196
	movq	%r12, 32(%rsp)
	leaq	.Lggv$160(%rip), %rdx
	leaq	64(%rsp), %r8
	leaq	512(%rsp), %r9
	movq	%rbx, %rcx
	callq	io.write_string
	testl	%eax, %eax
	jne	.LBB55_196
	movq	104(%rsp), %rdx
	movq	%r12, 32(%rsp)
	leaq	64(%rsp), %r8
	leaq	504(%rsp), %r9
	movq	%rbx, %rcx
	callq	io.write_i64
	jmp	.LBB55_95
.LBB55_193:
	movq	%r12, 32(%rsp)
	leaq	.Lggv$129(%rip), %rdx
	leaq	64(%rsp), %r8
	leaq	1160(%rsp), %r9
.LBB55_194:
	movq	%rbx, %rcx
	callq	io.write_string
.LBB55_195:
	testl	%eax, %eax
	je	.LBB55_212
.LBB55_196:
	movq	64(%rsp), %rcx
	movq	%rcx, (%r13)
	testq	%rdi, %rdi
	je	.LBB55_198
.LBB55_197:
	addq	%rcx, (%rdi)
.LBB55_198:
	addq	$1256, %rsp
	popq	%rbx
	popq	%rbp
	popq	%rdi
	popq	%rsi
	popq	%r12
	popq	%r13
	popq	%r14
	popq	%r15
	retq
.LBB55_199:
	movq	%rdi, %r12
	movq	%rdi, 32(%rsp)
	leaq	.Lggv$1df(%rip), %rdx
	leaq	64(%rsp), %r8
	leaq	984(%rsp), %r9
	movq	%rbx, %rcx
	callq	io.write_string
	testl	%eax, %eax
	movq	72(%rsp), %rdi
	movq	%rsi, %r13
	jne	.LBB55_196
.LBB55_200:
	cmpq	$0, 88(%rsp)
	je	.LBB55_212
	movq	%r12, 32(%rsp)
	leaq	.Lggv$13b(%rip), %rdx
	leaq	64(%rsp), %r8
	leaq	976(%rsp), %r9
	movq	%rbx, %rcx
	callq	io.write_string
	testl	%eax, %eax
	jne	.LBB55_196
	movq	88(%rsp), %rdx
	movq	%r12, 32(%rsp)
	leaq	64(%rsp), %r8
	leaq	968(%rsp), %r9
	jmp	.LBB55_90
.LBB55_203:
	leaq	64(%rsp), %r8
	movq	%rbx, %rcx
	movb	$125, %dl
	movq	%r15, %r9
	jmp	.LBB55_210
.LBB55_204:
	movq	%r12, 32(%rsp)
	leaq	.Lggv$158(%rip), %rdx
	leaq	64(%rsp), %r8
	leaq	720(%rsp), %r9
	movq	%rbx, %rcx
	callq	io.write_string
	testl	%eax, %eax
	jne	.LBB55_196
	movq	8(%r15), %rdx
	movq	%r12, 32(%rsp)
	leaq	64(%rsp), %r8
	leaq	712(%rsp), %r9
	movq	%rbx, %rcx
	callq	io.write_i64
	testl	%eax, %eax
	jne	.LBB55_196
	movq	%r12, 32(%rsp)
	leaq	.Lggv$16d(%rip), %rdx
	leaq	64(%rsp), %r8
	leaq	704(%rsp), %r9
	movq	%rbx, %rcx
	callq	io.write_string
	testl	%eax, %eax
	jne	.LBB55_196
	jmp	.LBB55_174
.LBB55_207:
	movq	%r12, 32(%rsp)
	leaq	.Lggv$129(%rip), %rdx
	leaq	64(%rsp), %r8
	leaq	1192(%rsp), %r9
	jmp	.LBB55_194
.LBB55_208:
	movq	%r14, 32(%rsp)
	leaq	.Lggv$1da(%rip), %rdx
	leaq	64(%rsp), %r8
	leaq	416(%rsp), %r9
	movq	%rbx, %rcx
	callq	io.write_string
	testl	%eax, %eax
	movq	72(%rsp), %rdi
	jmp	.LBB55_211
.LBB55_209:
	leaq	64(%rsp), %r8
	movq	%rbx, %rcx
	movb	$125, %dl
	movq	%rbp, %r9
.LBB55_210:
	callq	io.write_byte
	testl	%eax, %eax
.LBB55_211:
	movq	%rsi, %r13
	jne	.LBB55_196
.LBB55_212:
	movq	64(%rsp), %rcx
	movq	%rcx, (%r13)
	xorl	%eax, %eax
	testq	%rdi, %rdi
	jne	.LBB55_197
	jmp	.LBB55_198
.LBB55_213:
	leaq	64(%rsp), %r8
	movq	%rbx, %rcx
	movb	$125, %dl
	movq	1360(%rsp), %r9
	callq	io.write_byte
	testl	%eax, %eax
	movq	152(%rsp), %r13
	jne	.LBB55_196
	jmp	.LBB55_212
	.section	.rdata,"dr"
	.p2align	2, 0x0
.LJTI55_0:
	.long	.LBB55_3-.LJTI55_0
	.long	.LBB55_48-.LJTI55_0
	.long	.LBB55_38-.LJTI55_0
	.long	.LBB55_41-.LJTI55_0
	.long	.LBB55_17-.LJTI55_0
	.long	.LBB55_68-.LJTI55_0
	.long	.LBB55_78-.LJTI55_0
	.long	.LBB55_46-.LJTI55_0
	.long	.LBB55_91-.LJTI55_0
	.long	.LBB55_29-.LJTI55_0
	.long	.LBB55_87-.LJTI55_0
	.long	.LBB55_15-.LJTI55_0
	.long	.LBB55_19-.LJTI55_0
	.long	.LBB55_74-.LJTI55_0
	.long	.LBB55_9-.LJTI55_0
	.long	.LBB55_39-.LJTI55_0
	.long	.LBB55_7-.LJTI55_0
	.long	.LBB55_52-.LJTI55_0
	.long	.LBB55_80-.LJTI55_0
	.long	.LBB55_100-.LJTI55_0
	.long	.LBB55_64-.LJTI55_0
	.long	.LBB55_70-.LJTI55_0
	.long	.LBB55_92-.LJTI55_0
	.long	.LBB55_111-.LJTI55_0
	.long	.LBB55_34-.LJTI55_0
	.long	.LBB55_30-.LJTI55_0
	.long	.LBB55_129-.LJTI55_0
	.long	.LBB55_5-.LJTI55_0
	.long	.LBB55_115-.LJTI55_0
	.text
	.seh_endproc

	.def	reflect.struct_tag_lookup;
	.scl	3;
	.type	32;
	.endef
	.p2align	4, 0x90
reflect.struct_tag_lookup:
.seh_proc reflect.struct_tag_lookup
	pushq	%rsi
	.seh_pushreg %rsi
	pushq	%rdi
	.seh_pushreg %rdi
	pushq	%rbp
	.seh_pushreg %rbp
	pushq	%rbx
	.seh_pushreg %rbx
	subq	$56, %rsp
	.seh_stackalloc 56
	.seh_endprologue
	movq	8(%rcx), %r10
	testq	%r10, %r10
	je	.LBB56_29
	movq	(%rcx), %rcx
.LBB56_2:
	xorl	%r9d, %r9d
	testq	%r10, %r10
	jle	.LBB56_3
	.p2align	4, 0x90
.LBB56_5:
	cmpb	$32, (%rcx,%r9)
	jne	.LBB56_3
	incq	%r9
	cmpq	%r9, %r10
	jne	.LBB56_5
	movq	%r10, %r9
	jmp	.LBB56_8
	.p2align	4, 0x90
.LBB56_3:
	cmpq	%r10, %r9
	jg	.LBB56_4
.LBB56_8:
	subq	%r9, %r10
	testq	%r10, %r10
	jle	.LBB56_29
	addq	%r9, %rcx
	xorl	%r9d, %r9d
	.p2align	4, 0x90
.LBB56_10:
	movzbl	(%rcx,%r9), %eax
	cmpl	$34, %eax
	je	.LBB56_16
	cmpl	$58, %eax
	je	.LBB56_16
	cmpb	$32, %al
	jb	.LBB56_16
	addb	$-127, %al
	cmpb	$33, %al
	jb	.LBB56_16
	incq	%r9
	cmpq	%r9, %r10
	jne	.LBB56_10
	movq	%r10, %r9
	jmp	.LBB56_17
	.p2align	4, 0x90
.LBB56_16:
	testq	%r9, %r9
	je	.LBB56_29
.LBB56_17:
	leaq	1(%r9), %rax
	cmpq	%rax, %r10
	jle	.LBB56_29
	cmpq	%r10, %r9
	jae	.LBB56_39
	cmpb	$58, (%rcx,%r9)
	jne	.LBB56_29
	movq	%r10, %r11
	subq	%rax, %r11
	jbe	.LBB56_40
	cmpb	$34, (%rcx,%rax)
	jne	.LBB56_29
	cmpq	%r10, %r9
	jg	.LBB56_41
	testq	%rax, %rax
	js	.LBB56_42
	cmpq	$2, %r11
	jl	.LBB56_29
	addq	%rcx, %rax
	movl	$1, %r10d
	.p2align	4, 0x90
.LBB56_26:
	cmpq	%r11, %r10
	jae	.LBB56_43
	movzbl	(%rax,%r10), %ebx
	cmpb	$34, %bl
	je	.LBB56_30
	xorl	%esi, %esi
	cmpb	$92, %bl
	sete	%sil
	addq	%rsi, %r10
	incq	%r10
	cmpq	%r11, %r10
	jl	.LBB56_26
	jmp	.LBB56_29
	.p2align	4, 0x90
.LBB56_30:
	leaq	1(%r10), %rsi
	cmpq	%r9, 8(%rdx)
	jne	.LBB56_35
	movq	(%rdx), %rdi
	cmpq	%rcx, %rdi
	je	.LBB56_36
	xorl	%ebx, %ebx
	.p2align	4, 0x90
.LBB56_34:
	movzbl	(%rdi,%rbx), %ebp
	cmpb	(%rcx,%rbx), %bpl
	jne	.LBB56_35
	incq	%rbx
	cmpq	%rbx, %r9
	jne	.LBB56_34
	jmp	.LBB56_36
	.p2align	4, 0x90
.LBB56_35:
	leaq	(%rax,%r10), %rcx
	incq	%rcx
	subq	%rsi, %r11
	movq	%r11, %r10
	jne	.LBB56_2
.LBB56_29:
	xorps	%xmm0, %xmm0
	movups	%xmm0, (%r8)
	xorl	%eax, %eax
.LBB56_38:
	addq	$56, %rsp
	popq	%rbx
	popq	%rbp
	popq	%rdi
	popq	%rsi
	retq
.LBB56_36:
	movabsq	$-9223372036854775807, %rcx
	leaq	(%r10,%rcx), %rdx
	incq	%rcx
	cmpq	%rcx, %rdx
	jb	.LBB56_44
	incq	%rax
	decq	%r10
	movq	%rax, (%r8)
	movq	%r10, 8(%r8)
	movb	$1, %al
	jmp	.LBB56_38
.LBB56_43:
	movq	%r11, 32(%rsp)
	leaq	.Lggv$1ac(%rip), %rcx
	movl	$559, %edx
	movl	$23, %r8d
	movq	%r10, %r9
	callq	"runtime.bounds_check_error.handle_error-0"
.LBB56_39:
	movq	%r10, 32(%rsp)
	leaq	.Lggv$1ac(%rip), %rcx
	movl	$552, %edx
	movl	$8, %r8d
	callq	"runtime.bounds_check_error.handle_error-0"
.LBB56_40:
	movq	%r10, 32(%rsp)
	leaq	.Lggv$1ac(%rip), %rcx
	movl	$552, %edx
	movl	$23, %r8d
	movq	%rax, %r9
	callq	"runtime.bounds_check_error.handle_error-0"
.LBB56_42:
	movq	%r10, 40(%rsp)
	movq	%r10, 32(%rsp)
	leaq	.Lggv$1ac(%rip), %rcx
	movl	$556, %edx
	movl	$8, %r8d
	movq	%rax, %r9
	callq	runtime.slice_handle_error
.LBB56_41:
	movq	%r10, 40(%rsp)
	movq	%r9, 32(%rsp)
	leaq	.Lggv$1ac(%rip), %rcx
	movl	$555, %edx
	movl	$19, %r8d
	xorl	%r9d, %r9d
	callq	runtime.slice_handle_error
.LBB56_4:
	movq	%r10, 40(%rsp)
	movq	%r10, 32(%rsp)
	leaq	.Lggv$1ac(%rip), %rcx
	movl	$529, %edx
	movl	$8, %r8d
	callq	runtime.slice_handle_error
.LBB56_44:
	movq	%rsi, 40(%rsp)
	movq	%r10, 32(%rsp)
	leaq	.Lggv$1ac(%rip), %rcx
	movl	$1, %r9d
	movl	$574, %edx
	movl	$14, %r8d
	callq	runtime.slice_handle_error
	int3
	.seh_endproc

	.def	runtime.type_info_base;
	.scl	3;
	.type	32;
	.endef
	.p2align	4, 0x90
runtime.type_info_base:
	testq	%rcx, %rcx
	je	.LBB57_1
	movq	%rcx, %rax
	cmpq	$1, 104(%rax)
	jne	.LBB57_5
	.p2align	4, 0x90
.LBB57_3:
	movq	48(%rax), %rax
	cmpq	$1, 104(%rax)
	je	.LBB57_3
.LBB57_5:
	retq
.LBB57_1:
	xorl	%eax, %eax
	retq

	.def	runtime.__type_info_of;
	.scl	3;
	.type	32;
	.endef
	.p2align	4, 0x90
runtime.__type_info_of:
	movabsq	$72057594037927935, %rax
	andq	%rcx, %rax
	xorl	%ecx, %ecx
	cmpq	$160, %rax
	cmovbq	%rax, %rcx
	leaq	.L__$type_info_data(%rip), %rax
	movq	(%rax,%rcx,8), %rax
	retq

	.def	runtime.default_logger_proc;
	.scl	3;
	.type	32;
	.endef
	.p2align	4, 0x90
runtime.default_logger_proc:
	retq

	.def	runtime.default_context;
	.scl	3;
	.type	32;
	.endef
	.p2align	4, 0x90
runtime.default_context:
	movq	%rcx, %rax
	leaq	runtime.heap_allocator_proc(%rip), %rcx
	movq	%rcx, (%rax)
	movq	$0, 8(%rax)
	leaq	runtime.default_temp_allocator_proc(%rip), %rcx
	movq	%rcx, 16(%rax)
	movl	_tls_index(%rip), %ecx
	movq	%gs:88, %rdx
	movq	(%rdx,%rcx,8), %rcx
	leaq	runtime.global_default_temp_allocator_data@SECREL32(%rcx), %rcx
	movq	%rcx, 24(%rax)
	leaq	runtime.default_assertion_failure_proc(%rip), %rcx
	movq	%rcx, 32(%rax)
	leaq	runtime.default_logger_proc(%rip), %rcx
	movq	%rcx, 40(%rax)
	xorps	%xmm0, %xmm0
	movups	%xmm0, 48(%rax)
	movq	$0, 64(%rax)
	leaq	runtime.default_random_generator_proc(%rip), %rcx
	movq	%rcx, 72(%rax)
	movups	%xmm0, 80(%rax)
	movups	%xmm0, 96(%rax)
	retq

	.def	runtime.default_assertion_failure_proc;
	.scl	3;
	.type	32;
	.endef
	.p2align	4, 0x90
runtime.default_assertion_failure_proc:
.seh_proc runtime.default_assertion_failure_proc
	pushq	%rsi
	.seh_pushreg %rsi
	pushq	%rdi
	.seh_pushreg %rdi
	subq	$40, %rsp
	.seh_stackalloc 40
	.seh_endprologue
	movq	%rdx, %rsi
	movq	%rcx, %rdi
	movq	%r8, %rcx
	callq	runtime.print_caller_location
	leaq	.Lggv$18a(%rip), %rcx
	callq	runtime.print_string
	movq	%rdi, %rcx
	callq	runtime.print_string
	cmpq	$0, 8(%rsi)
	jle	.LBB61_2
	leaq	.Lggv$18b(%rip), %rcx
	callq	runtime.print_string
	movq	%rsi, %rcx
	callq	runtime.print_string
.LBB61_2:
	movb	$10, %cl
	callq	runtime.print_byte
	ud2
	.seh_endproc

	.def	__truncsfhf2;
	.scl	2;
	.type	32;
	.endef
	.globl	__truncsfhf2
	.p2align	4, 0x90
__truncsfhf2:
	pushq	%rax
	movd	%xmm0, %r9d
	movl	%r9d, %eax
	shrl	$16, %eax
	andl	$32768, %eax
	movl	%r9d, %r10d
	shrl	$23, %r10d
	movzbl	%r10b, %r8d
	movl	%r9d, %edx
	andl	$8388607, %edx
	cmpl	$112, %r8d
	ja	.LBB62_3
	cmpl	$102, %r8d
	jb	.LBB62_12
	orl	$8388608, %edx
	movb	$113, %cl
	subb	%r10b, %cl
	shrl	%cl, %edx
	movl	%edx, %ecx
	andl	$4096, %ecx
	leal	(%rdx,%rcx,2), %ecx
	shrl	$13, %ecx
	orl	%eax, %ecx
	movl	%ecx, %eax
	jmp	.LBB62_12
.LBB62_3:
	leal	-112(%r8), %ecx
	cmpl	$143, %ecx
	jne	.LBB62_6
	testl	%edx, %edx
	je	.LBB62_11
	movl	%edx, %ecx
	shrl	$13, %ecx
	xorl	%r8d, %r8d
	cmpl	$8192, %edx
	setb	%r8b
	orl	%eax, %ecx
	orl	%r8d, %ecx
	orl	$31744, %ecx
	movl	%ecx, %eax
	jmp	.LBB62_12
.LBB62_6:
	testl	$4096, %r9d
	je	.LBB62_8
	leal	8192(%rdx), %r9d
	addl	$-111, %r8d
	xorl	%r10d, %r10d
	cmpl	$8380416, %edx
	cmovbl	%r9d, %r10d
	cmovbl	%ecx, %r8d
	movl	%r10d, %edx
	movl	%r8d, %ecx
.LBB62_8:
	cmpl	$31, %ecx
	jb	.LBB62_10
	movabsq	$1000000000000, %rcx
	movq	%rcx, (%rsp)
	movq	(%rsp), %rcx
	imulq	%rcx, %rcx
	movq	%rcx, (%rsp)
	movq	(%rsp), %rcx
	imulq	%rcx, %rcx
	movq	%rcx, (%rsp)
	movq	(%rsp), %rcx
	imulq	%rcx, %rcx
	movq	%rcx, (%rsp)
	movq	(%rsp), %rcx
	imulq	%rcx, %rcx
	movq	%rcx, (%rsp)
	movq	(%rsp), %rcx
	imulq	%rcx, %rcx
	movq	%rcx, (%rsp)
	movq	(%rsp), %rcx
	imulq	%rcx, %rcx
	movq	%rcx, (%rsp)
	movq	(%rsp), %rcx
	imulq	%rcx, %rcx
	movq	%rcx, (%rsp)
	movq	(%rsp), %rcx
	imulq	%rcx, %rcx
	movq	%rcx, (%rsp)
	movq	(%rsp), %rcx
	imulq	%rcx, %rcx
	movq	%rcx, (%rsp)
	movq	(%rsp), %rcx
	imulq	%rcx, %rcx
	movq	%rcx, (%rsp)
.LBB62_11:
	orl	$31744, %eax
	jmp	.LBB62_12
.LBB62_10:
	shll	$10, %ecx
	shrl	$13, %edx
	orl	%eax, %edx
	orl	%ecx, %edx
	movl	%edx, %eax
.LBB62_12:
	pinsrw	$0, %eax, %xmm0
	popq	%rax
	retq

	.def	reflect.as_i64;
	.scl	3;
	.type	32;
	.endef
	.p2align	4, 0x90
reflect.as_i64:
.seh_proc reflect.as_i64
	subq	$56, %rsp
	.seh_stackalloc 56
	.seh_endprologue
	movq	(%rcx), %r10
	xorl	%r8d, %r8d
	movl	$0, %eax
	testq	%r10, %r10
	je	.LBB63_67
	movq	8(%rcx), %rcx
	testq	%rcx, %rcx
	je	.LBB63_67
	movabsq	$72057594037927935, %rax
	andq	%rax, %rcx
	xorl	%eax, %eax
	cmpq	$160, %rcx
	cmovbq	%rcx, %rax
	leaq	.L__$type_info_data(%rip), %rcx
	leaq	(%rcx,%rax,8), %rax
	.p2align	4, 0x90
.LBB63_3:
	movq	(%rax), %rcx
	leaq	32(%rcx), %rax
	movq	104(%rcx), %r11
	cmpq	$29, %r11
	je	.LBB63_3
	cmpq	$21, %r11
	je	.LBB63_3
	cmpq	$1, %r11
	jne	.LBB63_7
	addq	$48, %rcx
	movq	%rcx, %rax
	jmp	.LBB63_3
.LBB63_7:
	xorl	%r8d, %r8d
	xorl	%eax, %eax
	addq	$-2, %r11
	cmpq	$6, %r11
	ja	.LBB63_67
	movq	24(%rcx), %r9
	leaq	.LJTI63_0(%rip), %rcx
	movslq	(%rcx,%r11,4), %r11
	addq	%rcx, %r11
	jmpq	*%r11
.LBB63_9:
	xorl	%r8d, %r8d
	xorl	%eax, %eax
	movabsq	$-72057594037927938, %rcx
	addq	%r9, %rcx
	cmpq	$142, %rcx
	ja	.LBB63_37
	leaq	.LJTI63_1(%rip), %r9
	movslq	(%r9,%rcx,4), %rcx
	addq	%r9, %rcx
	jmpq	*%rcx
.LBB63_11:
	movzwl	(%r10), %r8d
	jmp	.LBB63_66
.LBB63_12:
	xorl	%r8d, %r8d
	xorl	%eax, %eax
	movabsq	$216172782113783931, %rcx
	cmpq	%rcx, %r9
	jg	.LBB63_33
	movabsq	$216172782113783825, %rcx
	cmpq	%rcx, %r9
	je	.LBB63_36
	movabsq	$216172782113783829, %rcx
	cmpq	%rcx, %r9
	je	.LBB63_44
	movabsq	$216172782113783833, %rcx
	cmpq	%rcx, %r9
	jne	.LBB63_67
	movl	(%r10), %eax
	bswapl	%eax
	movd	%eax, %xmm0
	jmp	.LBB63_32
.LBB63_17:
	xorl	%r8d, %r8d
	xorl	%eax, %eax
	movabsq	$504403158265495676, %rcx
	cmpq	%rcx, %r9
	jle	.LBB63_40
	movabsq	$504403158265495677, %rcx
	cmpq	%rcx, %r9
	je	.LBB63_53
	movabsq	$504403158265495683, %rcx
	cmpq	%rcx, %r9
	je	.LBB63_54
	movabsq	$504403158265495694, %rcx
	cmpq	%rcx, %r9
	jne	.LBB63_67
	xorl	%r8d, %r8d
	cmpw	$0, (%r10)
	setne	%r8b
	jmp	.LBB63_66
.LBB63_22:
	movabsq	$4755801206503243794, %rax
	cmpq	%rax, %r9
	jne	.LBB63_68
.LBB63_23:
	movslq	(%r10), %r8
	jmp	.LBB63_66
.LBB63_24:
	movabsq	$288230376151711881, %rax
	cmpq	%rax, %r9
	je	.LBB63_43
	movabsq	$288230376151711887, %rax
	cmpq	%rax, %r9
	jne	.LBB63_45
	movq	(%r10), %rax
	movabsq	$9223372032559808512, %rcx
	testq	%rcx, %rax
	jne	.LBB63_45
	jmp	.LBB63_31
.LBB63_27:
	cmpq	$20, %r9
	je	.LBB63_46
	cmpq	$12, %r9
	jne	.LBB63_45
	movabsq	$9223372032559808512, %rcx
	orq	$2147483647, %rcx
	andq	(%r10), %rcx
	movq	8(%r10), %rax
	movl	%eax, %r8d
	andl	$2147483647, %r8d
	orq	%rcx, %r8
	jne	.LBB63_45
	shrq	$32, %rax
.LBB63_31:
	movd	%eax, %xmm0
.LBB63_32:
	cvttss2si	%xmm0, %eax
	jmp	.LBB63_65
.LBB63_33:
	movabsq	$216172782113783932, %rcx
	cmpq	%rcx, %r9
	je	.LBB63_55
	movabsq	$216172782113783938, %rcx
	cmpq	%rcx, %r9
	je	.LBB63_44
	movabsq	$216172782113783940, %rcx
	cmpq	%rcx, %r9
	jne	.LBB63_67
.LBB63_36:
	cvttss2si	(%r10), %eax
.LBB63_65:
	movslq	%eax, %r8
	jmp	.LBB63_66
.LBB63_37:
	movabsq	$-4683743612465315969, %rcx
	addq	%r9, %rcx
	cmpq	$19, %rcx
	ja	.LBB63_50
	leaq	.LJTI63_3(%rip), %r9
	movslq	(%r9,%rcx,4), %rcx
	addq	%r9, %rcx
	jmpq	*%rcx
.LBB63_39:
	movq	8(%r10), %r8
	bswapq	%r8
	jmp	.LBB63_66
.LBB63_40:
	movabsq	$504403158265495562, %rcx
	cmpq	%rcx, %r9
	je	.LBB63_42
	movabsq	$504403158265495599, %rcx
	cmpq	%rcx, %r9
	jne	.LBB63_67
.LBB63_42:
	xorl	%r8d, %r8d
	cmpb	$0, (%r10)
	setne	%r8b
	jmp	.LBB63_66
.LBB63_43:
	movsd	8(%r10), %xmm0
	xorpd	%xmm1, %xmm1
	ucomisd	%xmm1, %xmm0
	jne	.LBB63_45
	jp	.LBB63_45
.LBB63_44:
	cvttsd2si	(%r10), %r8
	jmp	.LBB63_66
.LBB63_45:
	xorl	%r8d, %r8d
	xorl	%eax, %eax
	jmp	.LBB63_67
.LBB63_46:
	movsd	(%r10), %xmm1
	xorl	%r8d, %r8d
	xorpd	%xmm0, %xmm0
	ucomisd	%xmm0, %xmm1
	movl	$0, %eax
	jne	.LBB63_67
	jp	.LBB63_67
	movsd	8(%r10), %xmm1
	ucomisd	%xmm0, %xmm1
	jne	.LBB63_67
	jp	.LBB63_67
	movsd	16(%r10), %xmm0
	xorpd	%xmm1, %xmm1
	ucomisd	%xmm1, %xmm0
	jne	.LBB63_67
	jp	.LBB63_67
	cvttsd2si	24(%r10), %r8
	jmp	.LBB63_66
.LBB63_50:
	movabsq	$-4683743612465315844, %rcx
	addq	%rcx, %r9
	cmpq	$22, %r9
	ja	.LBB63_67
	leaq	.LJTI63_2(%rip), %rcx
	movslq	(%rcx,%r9,4), %r9
	addq	%rcx, %r9
	jmpq	*%r9
.LBB63_52:
	movq	(%r10), %r8
	jmp	.LBB63_66
.LBB63_53:
	xorl	%r8d, %r8d
	cmpq	$0, (%r10)
	setne	%r8b
	jmp	.LBB63_66
.LBB63_54:
	xorl	%r8d, %r8d
	cmpl	$0, (%r10)
	setne	%r8b
	jmp	.LBB63_66
.LBB63_55:
	movq	(%r10), %rax
	bswapq	%rax
	movq	%rax, %xmm0
	cvttsd2si	%xmm0, %r8
	jmp	.LBB63_66
.LBB63_56:
	movl	(%r10), %r8d
	jmp	.LBB63_66
.LBB63_57:
	movq	(%r10), %r8
	bswapq	%r8
	jmp	.LBB63_66
.LBB63_58:
	movswq	(%r10), %r8
	jmp	.LBB63_66
.LBB63_59:
	movl	(%r10), %r8d
	bswapl	%r8d
	jmp	.LBB63_66
.LBB63_60:
	movzwl	(%r10), %eax
	rolw	$8, %ax
	movzwl	%ax, %r8d
	jmp	.LBB63_66
.LBB63_61:
	movzbl	(%r10), %r8d
	jmp	.LBB63_66
.LBB63_62:
	movsbq	(%r10), %r8
	jmp	.LBB63_66
.LBB63_63:
	movzwl	(%r10), %eax
	rolw	$8, %ax
	movswq	%ax, %r8
.LBB63_66:
	movb	$1, %al
.LBB63_67:
	movq	%r8, (%rdx)
	addq	$56, %rsp
	retq
.LBB63_64:
	movl	(%r10), %eax
	bswapl	%eax
	jmp	.LBB63_65
.LBB63_68:
	movq	%r10, 40(%rsp)
	movq	%rax, 32(%rsp)
	leaq	.Lggv$1ac(%rip), %rcx
	movl	$1048, %edx
	movl	$8, %r8d
	callq	"runtime.type_assertion_check2.handle_error-1"
	int3
	.section	.rdata,"dr"
	.p2align	2, 0x0
.LJTI63_0:
	.long	.LBB63_9-.LJTI63_0
	.long	.LBB63_22-.LJTI63_0
	.long	.LBB63_12-.LJTI63_0
	.long	.LBB63_24-.LJTI63_0
	.long	.LBB63_27-.LJTI63_0
	.long	.LBB63_67-.LJTI63_0
	.long	.LBB63_17-.LJTI63_0
.LJTI63_1:
	.long	.LBB63_61-.LJTI63_1
	.long	.LBB63_67-.LJTI63_1
	.long	.LBB63_67-.LJTI63_1
	.long	.LBB63_67-.LJTI63_1
	.long	.LBB63_67-.LJTI63_1
	.long	.LBB63_67-.LJTI63_1
	.long	.LBB63_67-.LJTI63_1
	.long	.LBB63_67-.LJTI63_1
	.long	.LBB63_67-.LJTI63_1
	.long	.LBB63_11-.LJTI63_1
	.long	.LBB63_67-.LJTI63_1
	.long	.LBB63_67-.LJTI63_1
	.long	.LBB63_67-.LJTI63_1
	.long	.LBB63_67-.LJTI63_1
	.long	.LBB63_67-.LJTI63_1
	.long	.LBB63_67-.LJTI63_1
	.long	.LBB63_67-.LJTI63_1
	.long	.LBB63_67-.LJTI63_1
	.long	.LBB63_67-.LJTI63_1
	.long	.LBB63_67-.LJTI63_1
	.long	.LBB63_67-.LJTI63_1
	.long	.LBB63_67-.LJTI63_1
	.long	.LBB63_56-.LJTI63_1
	.long	.LBB63_67-.LJTI63_1
	.long	.LBB63_67-.LJTI63_1
	.long	.LBB63_67-.LJTI63_1
	.long	.LBB63_67-.LJTI63_1
	.long	.LBB63_67-.LJTI63_1
	.long	.LBB63_67-.LJTI63_1
	.long	.LBB63_52-.LJTI63_1
	.long	.LBB63_67-.LJTI63_1
	.long	.LBB63_67-.LJTI63_1
	.long	.LBB63_67-.LJTI63_1
	.long	.LBB63_67-.LJTI63_1
	.long	.LBB63_67-.LJTI63_1
	.long	.LBB63_67-.LJTI63_1
	.long	.LBB63_67-.LJTI63_1
	.long	.LBB63_67-.LJTI63_1
	.long	.LBB63_67-.LJTI63_1
	.long	.LBB63_67-.LJTI63_1
	.long	.LBB63_67-.LJTI63_1
	.long	.LBB63_67-.LJTI63_1
	.long	.LBB63_67-.LJTI63_1
	.long	.LBB63_67-.LJTI63_1
	.long	.LBB63_67-.LJTI63_1
	.long	.LBB63_67-.LJTI63_1
	.long	.LBB63_67-.LJTI63_1
	.long	.LBB63_67-.LJTI63_1
	.long	.LBB63_67-.LJTI63_1
	.long	.LBB63_67-.LJTI63_1
	.long	.LBB63_67-.LJTI63_1
	.long	.LBB63_67-.LJTI63_1
	.long	.LBB63_67-.LJTI63_1
	.long	.LBB63_67-.LJTI63_1
	.long	.LBB63_67-.LJTI63_1
	.long	.LBB63_67-.LJTI63_1
	.long	.LBB63_67-.LJTI63_1
	.long	.LBB63_67-.LJTI63_1
	.long	.LBB63_67-.LJTI63_1
	.long	.LBB63_67-.LJTI63_1
	.long	.LBB63_67-.LJTI63_1
	.long	.LBB63_67-.LJTI63_1
	.long	.LBB63_67-.LJTI63_1
	.long	.LBB63_67-.LJTI63_1
	.long	.LBB63_67-.LJTI63_1
	.long	.LBB63_67-.LJTI63_1
	.long	.LBB63_67-.LJTI63_1
	.long	.LBB63_67-.LJTI63_1
	.long	.LBB63_67-.LJTI63_1
	.long	.LBB63_67-.LJTI63_1
	.long	.LBB63_67-.LJTI63_1
	.long	.LBB63_67-.LJTI63_1
	.long	.LBB63_67-.LJTI63_1
	.long	.LBB63_67-.LJTI63_1
	.long	.LBB63_67-.LJTI63_1
	.long	.LBB63_67-.LJTI63_1
	.long	.LBB63_67-.LJTI63_1
	.long	.LBB63_67-.LJTI63_1
	.long	.LBB63_52-.LJTI63_1
	.long	.LBB63_67-.LJTI63_1
	.long	.LBB63_67-.LJTI63_1
	.long	.LBB63_67-.LJTI63_1
	.long	.LBB63_67-.LJTI63_1
	.long	.LBB63_67-.LJTI63_1
	.long	.LBB63_67-.LJTI63_1
	.long	.LBB63_67-.LJTI63_1
	.long	.LBB63_67-.LJTI63_1
	.long	.LBB63_67-.LJTI63_1
	.long	.LBB63_67-.LJTI63_1
	.long	.LBB63_67-.LJTI63_1
	.long	.LBB63_67-.LJTI63_1
	.long	.LBB63_67-.LJTI63_1
	.long	.LBB63_67-.LJTI63_1
	.long	.LBB63_67-.LJTI63_1
	.long	.LBB63_67-.LJTI63_1
	.long	.LBB63_67-.LJTI63_1
	.long	.LBB63_67-.LJTI63_1
	.long	.LBB63_67-.LJTI63_1
	.long	.LBB63_67-.LJTI63_1
	.long	.LBB63_67-.LJTI63_1
	.long	.LBB63_67-.LJTI63_1
	.long	.LBB63_67-.LJTI63_1
	.long	.LBB63_67-.LJTI63_1
	.long	.LBB63_67-.LJTI63_1
	.long	.LBB63_67-.LJTI63_1
	.long	.LBB63_67-.LJTI63_1
	.long	.LBB63_67-.LJTI63_1
	.long	.LBB63_67-.LJTI63_1
	.long	.LBB63_67-.LJTI63_1
	.long	.LBB63_67-.LJTI63_1
	.long	.LBB63_67-.LJTI63_1
	.long	.LBB63_67-.LJTI63_1
	.long	.LBB63_67-.LJTI63_1
	.long	.LBB63_67-.LJTI63_1
	.long	.LBB63_67-.LJTI63_1
	.long	.LBB63_67-.LJTI63_1
	.long	.LBB63_67-.LJTI63_1
	.long	.LBB63_67-.LJTI63_1
	.long	.LBB63_67-.LJTI63_1
	.long	.LBB63_67-.LJTI63_1
	.long	.LBB63_67-.LJTI63_1
	.long	.LBB63_60-.LJTI63_1
	.long	.LBB63_67-.LJTI63_1
	.long	.LBB63_67-.LJTI63_1
	.long	.LBB63_11-.LJTI63_1
	.long	.LBB63_52-.LJTI63_1
	.long	.LBB63_52-.LJTI63_1
	.long	.LBB63_67-.LJTI63_1
	.long	.LBB63_67-.LJTI63_1
	.long	.LBB63_67-.LJTI63_1
	.long	.LBB63_67-.LJTI63_1
	.long	.LBB63_67-.LJTI63_1
	.long	.LBB63_52-.LJTI63_1
	.long	.LBB63_57-.LJTI63_1
	.long	.LBB63_56-.LJTI63_1
	.long	.LBB63_67-.LJTI63_1
	.long	.LBB63_67-.LJTI63_1
	.long	.LBB63_59-.LJTI63_1
	.long	.LBB63_39-.LJTI63_1
	.long	.LBB63_67-.LJTI63_1
	.long	.LBB63_67-.LJTI63_1
	.long	.LBB63_67-.LJTI63_1
	.long	.LBB63_52-.LJTI63_1
.LJTI63_2:
	.long	.LBB63_52-.LJTI63_2
	.long	.LBB63_67-.LJTI63_2
	.long	.LBB63_67-.LJTI63_2
	.long	.LBB63_67-.LJTI63_2
	.long	.LBB63_67-.LJTI63_2
	.long	.LBB63_58-.LJTI63_2
	.long	.LBB63_67-.LJTI63_2
	.long	.LBB63_67-.LJTI63_2
	.long	.LBB63_67-.LJTI63_2
	.long	.LBB63_67-.LJTI63_2
	.long	.LBB63_67-.LJTI63_2
	.long	.LBB63_67-.LJTI63_2
	.long	.LBB63_67-.LJTI63_2
	.long	.LBB63_67-.LJTI63_2
	.long	.LBB63_67-.LJTI63_2
	.long	.LBB63_52-.LJTI63_2
	.long	.LBB63_67-.LJTI63_2
	.long	.LBB63_67-.LJTI63_2
	.long	.LBB63_23-.LJTI63_2
	.long	.LBB63_52-.LJTI63_2
	.long	.LBB63_67-.LJTI63_2
	.long	.LBB63_67-.LJTI63_2
	.long	.LBB63_23-.LJTI63_2
.LJTI63_3:
	.long	.LBB63_52-.LJTI63_3
	.long	.LBB63_67-.LJTI63_3
	.long	.LBB63_67-.LJTI63_3
	.long	.LBB63_67-.LJTI63_3
	.long	.LBB63_39-.LJTI63_3
	.long	.LBB63_67-.LJTI63_3
	.long	.LBB63_67-.LJTI63_3
	.long	.LBB63_67-.LJTI63_3
	.long	.LBB63_67-.LJTI63_3
	.long	.LBB63_57-.LJTI63_3
	.long	.LBB63_67-.LJTI63_3
	.long	.LBB63_67-.LJTI63_3
	.long	.LBB63_62-.LJTI63_3
	.long	.LBB63_67-.LJTI63_3
	.long	.LBB63_67-.LJTI63_3
	.long	.LBB63_67-.LJTI63_3
	.long	.LBB63_64-.LJTI63_3
	.long	.LBB63_52-.LJTI63_3
	.long	.LBB63_58-.LJTI63_3
	.long	.LBB63_63-.LJTI63_3
	.text
	.seh_endproc

	.def	__truncdfhf2;
	.scl	2;
	.type	32;
	.endef
	.globl	__truncdfhf2
	.p2align	4, 0x90
__truncdfhf2:
	cvtsd2ss	%xmm0, %xmm0
	jmp	__truncsfhf2

	.def	__gnu_h2f_ieee;
	.scl	2;
	.type	32;
	.endef
	.globl	__real@77800000
	.section	.rdata,"dr",discard,__real@77800000
	.p2align	2, 0x0
__real@77800000:
	.long	0x77800000
	.globl	__real@47800000
	.section	.rdata,"dr",discard,__real@47800000
	.p2align	2, 0x0
__real@47800000:
	.long	0x47800000
	.text
	.globl	__gnu_h2f_ieee
	.p2align	4, 0x90
__gnu_h2f_ieee:
	pextrw	$0, %xmm0, %eax
	movl	%eax, %ecx
	andl	$32767, %ecx
	shll	$13, %ecx
	movd	%ecx, %xmm0
	mulss	__real@77800000(%rip), %xmm0
	movd	%xmm0, %ecx
	movl	%ecx, %edx
	orl	$2139095040, %edx
	ucomiss	__real@47800000(%rip), %xmm0
	cmovbl	%ecx, %edx
	andl	$32768, %eax
	shll	$16, %eax
	orl	%edx, %eax
	movd	%eax, %xmm0
	retq

	.def	__gnu_f2h_ieee;
	.scl	2;
	.type	32;
	.endef
	.globl	__gnu_f2h_ieee
	.p2align	4, 0x90
__gnu_f2h_ieee:
	jmp	__truncsfhf2

	.def	__extendhfsf2;
	.scl	2;
	.type	32;
	.endef
	.globl	__extendhfsf2
	.p2align	4, 0x90
__extendhfsf2:
	pextrw	$0, %xmm0, %eax
	movl	%eax, %ecx
	andl	$32767, %ecx
	shll	$13, %ecx
	movd	%ecx, %xmm0
	mulss	__real@77800000(%rip), %xmm0
	movd	%xmm0, %ecx
	movl	%ecx, %edx
	orl	$2139095040, %edx
	ucomiss	__real@47800000(%rip), %xmm0
	cmovbl	%ecx, %edx
	andl	$32768, %eax
	shll	$16, %eax
	orl	%edx, %eax
	movd	%eax, %xmm0
	retq

	.def	__floattidf;
	.scl	2;
	.type	32;
	.endef
	.globl	__floattidf
	.p2align	4, 0x90
__floattidf:
	pushq	%r15
	pushq	%r14
	pushq	%rsi
	pushq	%rdi
	pushq	%rbx
	movq	(%rcx), %r10
	movq	8(%rcx), %r8
	movq	%r10, %rax
	orq	%r8, %rax
	je	.LBB68_1
	movq	%r8, %rdx
	sarq	$63, %rdx
	xorq	%rdx, %r8
	xorq	%rdx, %r10
	subq	%rdx, %r10
	sbbq	%rdx, %r8
	bsrq	%r8, %rcx
	xorq	$63, %rcx
	bsrq	%r10, %rax
	movl	$127, %r9d
	cmoveq	%r9, %rax
	xorq	$63, %rax
	addq	$64, %rax
	testq	%r8, %r8
	cmovneq	%rcx, %rax
	movq	%r10, %rcx
	shrq	$53, %rcx
	orq	%r8, %rcx
	je	.LBB68_11
	cmpb	$73, %al
	je	.LBB68_8
	movzbl	%al, %ecx
	cmpl	$74, %ecx
	jne	.LBB68_7
	shldq	$1, %r10, %r8
	addq	%r10, %r10
	jmp	.LBB68_8
.LBB68_1:
	pxor	%xmm0, %xmm0
	jmp	.LBB68_2
.LBB68_11:
	movl	%eax, %ecx
	addb	$53, %cl
	shlq	%cl, %r10
	xorl	%r8d, %r8d
	testb	$64, %cl
	cmoveq	%r10, %r8
	jmp	.LBB68_12
.LBB68_7:
	xorl	%edi, %edi
	movl	$73, %ecx
	subq	%rax, %rcx
	movl	$0, %ebx
	sbbq	%rbx, %rbx
	movq	%r10, %r11
	shrdq	%cl, %r8, %r11
	movq	%r8, %rsi
	shrq	%cl, %rsi
	testb	$64, %cl
	cmovneq	%rsi, %r11
	cmovneq	%rdi, %rsi
	cmpq	$128, %rcx
	sbbq	$0, %rbx
	cmovaeq	%rdi, %rsi
	cmovaeq	%rdi, %r11
	movq	%r10, %rbx
	movl	$511, %r14d
	movq	$-1, %r15
	movl	%eax, %ecx
	shrdq	%cl, %r14, %r15
	shrq	%cl, %r14
	shrq	$55, %rbx
	testb	$64, %al
	cmovneq	%r14, %r15
	cmovneq	%rdi, %r14
	orq	%r8, %rbx
	cmoveq	%rdi, %r15
	cmovel	%edi, %r14d
	andq	%r10, %r15
	andl	%r14d, %r8d
	xorl	%r10d, %r10d
	orq	%r15, %r8
	setne	%r10b
	orq	%r11, %r10
	movq	%rsi, %r8
.LBB68_8:
	movl	%r10d, %ecx
	shrl	$2, %ecx
	andl	$1, %ecx
	orq	%r10, %rcx
	addq	$1, %rcx
	adcq	$0, %r8
	btq	$55, %rcx
	jb	.LBB68_10
	shldq	$62, %rcx, %r8
	jmp	.LBB68_12
.LBB68_10:
	shldq	$61, %rcx, %r8
	movl	$128, %r9d
.LBB68_12:
	subl	%eax, %r9d
	andl	$-2147483648, %edx
	shll	$20, %r9d
	addl	$1072693248, %r9d
	orl	%edx, %r9d
	shlq	$32, %r9
	movabsq	$4503599627370495, %rax
	andq	%r8, %rax
	orq	%r9, %rax
	movq	%rax, %xmm0
.LBB68_2:
	popq	%rbx
	popq	%rdi
	popq	%rsi
	popq	%r14
	popq	%r15
	retq

	.def	__floattidf_unsigned;
	.scl	2;
	.type	32;
	.endef
	.globl	__floattidf_unsigned
	.p2align	4, 0x90
__floattidf_unsigned:
	pushq	%r14
	pushq	%rsi
	pushq	%rdi
	pushq	%rbx
	movq	(%rcx), %r9
	movq	8(%rcx), %rdx
	movq	%r9, %rax
	orq	%rdx, %rax
	je	.LBB69_1
	bsrq	%rdx, %rcx
	xorq	$63, %rcx
	bsrq	%r9, %rax
	xorq	$63, %rax
	addq	$64, %rax
	testq	%rdx, %rdx
	cmovneq	%rcx, %rax
	movl	%eax, %r8d
	xorl	$127, %r8d
	movq	%r9, %rcx
	shrq	$53, %rcx
	orq	%rdx, %rcx
	je	.LBB69_11
	movl	%eax, %ecx
	andb	$127, %cl
	cmpb	$73, %cl
	je	.LBB69_8
	movl	%eax, %ecx
	andl	$127, %ecx
	cmpl	$74, %ecx
	jne	.LBB69_7
	shldq	$1, %r9, %rdx
	addq	%r9, %r9
	jmp	.LBB69_8
.LBB69_1:
	pxor	%xmm0, %xmm0
	jmp	.LBB69_2
.LBB69_11:
	addb	$-75, %al
	movl	%eax, %ecx
	shlq	%cl, %r9
	xorl	%edx, %edx
	testb	$64, %al
	cmoveq	%r9, %rdx
	jmp	.LBB69_12
.LBB69_7:
	xorl	%esi, %esi
	movl	$73, %ecx
	subq	%rax, %rcx
	movl	$0, %edi
	sbbq	%rdi, %rdi
	movq	%r9, %r10
	shrdq	%cl, %rdx, %r10
	movq	%rdx, %r11
	shrq	%cl, %r11
	testb	$64, %cl
	cmovneq	%r11, %r10
	cmovneq	%rsi, %r11
	cmpq	$128, %rcx
	sbbq	$0, %rdi
	cmovaeq	%rsi, %r11
	cmovaeq	%rsi, %r10
	movq	%r9, %rdi
	movl	$511, %ebx
	movq	$-1, %r14
	movl	%eax, %ecx
	shrdq	%cl, %rbx, %r14
	shrq	%cl, %rbx
	shrq	$55, %rdi
	testb	$64, %al
	cmovneq	%rbx, %r14
	cmovneq	%rsi, %rbx
	orq	%rdx, %rdi
	cmoveq	%rsi, %r14
	cmovel	%esi, %ebx
	andq	%r9, %r14
	andl	%ebx, %edx
	xorl	%r9d, %r9d
	orq	%r14, %rdx
	setne	%r9b
	orq	%r10, %r9
	movq	%r11, %rdx
.LBB69_8:
	movl	%r9d, %ecx
	shrl	$2, %ecx
	andl	$1, %ecx
	orq	%r9, %rcx
	addq	$1, %rcx
	adcq	$0, %rdx
	btq	$55, %rcx
	jb	.LBB69_10
	shldq	$62, %rcx, %rdx
	jmp	.LBB69_12
.LBB69_10:
	shldq	$61, %rcx, %rdx
	movl	$128, %r8d
	subl	%eax, %r8d
.LBB69_12:
	shll	$20, %r8d
	movq	%rdx, %rax
	shrq	$32, %rax
	andl	$1048575, %eax
	addl	%r8d, %eax
	addl	$1072693248, %eax
	shlq	$32, %rax
	movl	%edx, %ecx
	orq	%rax, %rcx
	movq	%rcx, %xmm0
.LBB69_2:
	popq	%rbx
	popq	%rdi
	popq	%rsi
	popq	%r14
	retq

	.def	fmt.fmt_bad_verb;
	.scl	3;
	.type	32;
	.endef
	.p2align	4, 0x90
fmt.fmt_bad_verb:
.seh_proc fmt.fmt_bad_verb
	pushq	%r15
	.seh_pushreg %r15
	pushq	%r14
	.seh_pushreg %r14
	pushq	%rsi
	.seh_pushreg %rsi
	pushq	%rdi
	.seh_pushreg %rdi
	pushq	%rbp
	.seh_pushreg %rbp
	pushq	%rbx
	.seh_pushreg %rbx
	subq	$120, %rsp
	.seh_stackalloc 120
	.seh_endprologue
	movq	%r8, %rdi
	movq	%rcx, %rsi
	movzbl	8(%rcx), %ebp
	movb	$1, 8(%rcx)
	leaq	40(%rcx), %rbx
	leaq	112(%rcx), %r14
	movq	40(%rcx), %rax
	testq	%rax, %rax
	je	.LBB70_2
	movq	48(%rsi), %rcx
	movq	$0, 80(%rsp)
	movq	%rdi, 48(%rsp)
	leaq	80(%rsp), %r8
	movq	%r8, 40(%rsp)
	movq	$0, 32(%rsp)
	leaq	.Lggv$1b1(%rip), %r8
	movl	%edx, %r15d
	movl	$4, %edx
	xorl	%r9d, %r9d
	callq	*%rax
	movl	%r15d, %edx
	movq	80(%rsp), %rax
	addq	%rax, 112(%rsi)
.LBB70_2:
	movq	%rdi, 32(%rsp)
	leaq	112(%rsp), %r9
	movq	%rbx, %rcx
	movq	%r14, %r8
	callq	io.write_rune
	movb	$40, 71(%rsp)
	leaq	71(%rsp), %r15
	movq	%r15, 80(%rsp)
	movq	$1, 88(%rsp)
	movq	(%rbx), %rax
	testq	%rax, %rax
	je	.LBB70_4
	movq	48(%rsi), %rcx
	movq	$0, 72(%rsp)
	movq	%rdi, 48(%rsp)
	leaq	72(%rsp), %rdx
	movq	%rdx, 40(%rsp)
	movq	$0, 32(%rsp)
	leaq	80(%rsp), %r8
	movl	$4, %edx
	xorl	%r9d, %r9d
	callq	*%rax
	movq	72(%rsp), %rax
	addq	%rax, 112(%rsi)
.LBB70_4:
	movq	56(%rsi), %rcx
	movq	64(%rsi), %rax
	movq	%rcx, 96(%rsp)
	movq	%rax, 104(%rsp)
	testq	%rcx, %rcx
	je	.LBB70_9
	testq	%rax, %rax
	je	.LBB70_9
	movabsq	$72057594037927935, %rcx
	andq	%rcx, %rax
	xorl	%ecx, %ecx
	cmpq	$160, %rax
	cmovbq	%rax, %rcx
	leaq	.L__$type_info_data(%rip), %rax
	movq	(%rax,%rcx,8), %rdx
	movq	%rdi, 32(%rsp)
	leaq	80(%rsp), %r9
	movq	%rbx, %rcx
	movq	%r14, %r8
	callq	reflect.write_type_writer
	movb	$61, 71(%rsp)
	movq	%r15, 80(%rsp)
	movq	$1, 88(%rsp)
	movq	(%rbx), %rax
	testq	%rax, %rax
	je	.LBB70_8
	movq	48(%rsi), %rcx
	movq	$0, 72(%rsp)
	movq	%rdi, 48(%rsp)
	leaq	72(%rsp), %rdx
	movq	%rdx, 40(%rsp)
	movq	$0, 32(%rsp)
	leaq	80(%rsp), %r8
	movl	$4, %edx
	xorl	%r9d, %r9d
	callq	*%rax
	movq	72(%rsp), %rax
	addq	%rax, 112(%rsi)
.LBB70_8:
	leaq	96(%rsp), %rdx
	movq	%rsi, %rcx
	movl	$118, %r8d
	movq	%rdi, %r9
	callq	fmt.fmt_value
	jmp	.LBB70_11
.LBB70_9:
	movq	(%rbx), %rax
	testq	%rax, %rax
	je	.LBB70_11
	movq	48(%rsi), %rcx
	movq	$0, 80(%rsp)
	movq	%rdi, 48(%rsp)
	leaq	80(%rsp), %rdx
	movq	%rdx, 40(%rsp)
	movq	$0, 32(%rsp)
	leaq	.Lggv$24d(%rip), %r8
	movl	$4, %edx
	xorl	%r9d, %r9d
	callq	*%rax
	movq	80(%rsp), %rax
	addq	%rax, 112(%rsi)
.LBB70_11:
	movb	$41, 71(%rsp)
	movq	%r15, 80(%rsp)
	movq	$1, 88(%rsp)
	movq	(%rbx), %rax
	testq	%rax, %rax
	je	.LBB70_13
	movq	48(%rsi), %rcx
	movq	$0, 72(%rsp)
	movq	%rdi, 48(%rsp)
	leaq	72(%rsp), %rdx
	movq	%rdx, 40(%rsp)
	movq	$0, 32(%rsp)
	leaq	80(%rsp), %r8
	movl	$4, %edx
	xorl	%r9d, %r9d
	callq	*%rax
	movq	72(%rsp), %rax
	addq	%rax, 112(%rsi)
.LBB70_13:
	movb	%bpl, 8(%rsi)
	addq	$120, %rsp
	popq	%rbx
	popq	%rbp
	popq	%rdi
	popq	%rsi
	popq	%r14
	popq	%r15
	retq
	.seh_endproc

	.def	fmt.fmt_bool;
	.scl	3;
	.type	32;
	.endef
	.p2align	4, 0x90
fmt.fmt_bool:
.seh_proc fmt.fmt_bool
	subq	$56, %rsp
	.seh_stackalloc 56
	.seh_endprologue
	leal	-116(%r8), %eax
	cmpl	$3, %eax
	ja	.LBB71_3
	cmpl	$1, %eax
	je	.LBB71_3
	leaq	.Lcsbs$14e(%rip), %rax
	leaq	.Lcsbs$14f(%rip), %r8
	testb	%dl, %dl
	cmovneq	%rax, %r8
	movzbl	%dl, %eax
	xorq	$5, %rax
	movq	%r8, 40(%rsp)
	movq	%rax, 48(%rsp)
	leaq	40(%rsp), %rdx
	movl	$115, %r8d
	callq	fmt.fmt_string
	nop
	addq	$56, %rsp
	retq
.LBB71_3:
	movl	%r8d, %edx
	movq	%r9, %r8
	addq	$56, %rsp
	jmp	fmt.fmt_bad_verb
	.seh_endproc

	.def	__umodti3;
	.scl	2;
	.type	32;
	.endef
	.globl	__umodti3
	.p2align	4, 0x90
__umodti3:
	subq	$88, %rsp
	movq	(%rcx), %rax
	movq	8(%rcx), %rcx
	movq	(%rdx), %r8
	movq	8(%rdx), %rdx
	movq	%rax, 48(%rsp)
	movq	%rcx, 56(%rsp)
	movq	%r8, 32(%rsp)
	movq	%rdx, 40(%rsp)
	leaq	48(%rsp), %rcx
	leaq	32(%rsp), %rdx
	leaq	64(%rsp), %r8
	callq	runtime.udivmod128
	movaps	64(%rsp), %xmm0
	addq	$88, %rsp
	retq

	.def	__udivmodti4;
	.scl	2;
	.type	32;
	.endef
	.globl	__udivmodti4
	.p2align	4, 0x90
__udivmodti4:
	subq	$72, %rsp
	movq	(%rcx), %rax
	movq	8(%rcx), %rcx
	movq	(%rdx), %r9
	movq	8(%rdx), %rdx
	movq	%rax, 48(%rsp)
	movq	%rcx, 56(%rsp)
	movq	%r9, 32(%rsp)
	movq	%rdx, 40(%rsp)
	leaq	48(%rsp), %rcx
	leaq	32(%rsp), %rdx
	callq	runtime.udivmod128
	addq	$72, %rsp
	retq

	.def	__udivti3;
	.scl	2;
	.type	32;
	.endef
	.globl	__udivti3
	.p2align	4, 0x90
__udivti3:
	subq	$72, %rsp
	movaps	(%rcx), %xmm0
	movaps	(%rdx), %xmm1
	movaps	%xmm0, 48(%rsp)
	movaps	%xmm1, 32(%rsp)
	leaq	48(%rsp), %rcx
	leaq	32(%rsp), %rdx
	xorl	%r8d, %r8d
	callq	runtime.udivmod128
	addq	$72, %rsp
	retq

	.def	fmt._fmt_int;
	.scl	3;
	.type	32;
	.endef
	.p2align	4, 0x90
fmt._fmt_int:
.seh_proc fmt._fmt_int
	pushq	%r15
	.seh_pushreg %r15
	pushq	%r14
	.seh_pushreg %r14
	pushq	%r13
	.seh_pushreg %r13
	pushq	%r12
	.seh_pushreg %r12
	pushq	%rsi
	.seh_pushreg %rsi
	pushq	%rdi
	.seh_pushreg %rdi
	pushq	%rbp
	.seh_pushreg %rbp
	pushq	%rbx
	.seh_pushreg %rbx
	subq	$424, %rsp
	.seh_stackalloc 424
	.seh_endprologue
	movl	%r9d, %ebp
	movq	%r8, %rbx
	movq	%rdx, %r14
	movq	%rcx, %rdi
	movq	544(%rsp), %rsi
	movq	528(%rsp), %r15
	testb	%r9b, %r9b
	je	.LBB75_3
	leaq	-8(%r15), %rax
	shldq	$61, %rax, %rax
	cmpq	$7, %rax
	ja	.LBB75_33
	movl	$139, %ecx
	btq	%rax, %rcx
	jae	.LBB75_33
.LBB75_3:
	cmpb	$0, 5(%rdi)
	jne	.LBB75_5
	cmpb	$0, 6(%rdi)
	je	.LBB75_6
.LBB75_5:
	movq	16(%rdi), %rax
	movq	24(%rdi), %rcx
	addq	%rcx, %rax
	addq	$3, %rax
	cmpq	$257, %rax
	jge	.LBB75_34
.LBB75_6:
	xorps	%xmm0, %xmm0
	movaps	%xmm0, 400(%rsp)
	movaps	%xmm0, 384(%rsp)
	movaps	%xmm0, 368(%rsp)
	movaps	%xmm0, 352(%rsp)
	movaps	%xmm0, 336(%rsp)
	movaps	%xmm0, 320(%rsp)
	movaps	%xmm0, 304(%rsp)
	movaps	%xmm0, 288(%rsp)
	movaps	%xmm0, 272(%rsp)
	movaps	%xmm0, 256(%rsp)
	movaps	%xmm0, 240(%rsp)
	movaps	%xmm0, 224(%rsp)
	movaps	%xmm0, 208(%rsp)
	movaps	%xmm0, 192(%rsp)
	movaps	%xmm0, 176(%rsp)
	movaps	%xmm0, 160(%rsp)
	xorl	%eax, %eax
	cmpb	$0, 4(%rdi)
	movb	$1, %cl
	je	.LBB75_19
	testb	%bpl, %bpl
	jne	.LBB75_19
	leaq	-2(%rbx), %rdx
	shldq	$63, %rdx, %rdx
	xorl	%eax, %eax
	cmpq	$7, %rdx
	ja	.LBB75_19
	leaq	.LJTI75_0(%rip), %r8
	movslq	(%r8,%rdx,4), %rdx
	addq	%r8, %rdx
	jmpq	*%rdx
.LBB75_12:
	movb	$48, 87(%rsp)
	leaq	87(%rsp), %r12
	movq	%r12, 96(%rsp)
	movq	$1, 104(%rsp)
	movq	40(%rdi), %rax
	testq	%rax, %rax
	je	.LBB75_18
	movq	48(%rdi), %rcx
	movq	$0, 88(%rsp)
	movq	%rsi, 48(%rsp)
	leaq	88(%rsp), %r13
	movq	%r13, 40(%rsp)
	movq	$0, 32(%rsp)
	leaq	96(%rsp), %r8
	movl	$4, %edx
	xorl	%r9d, %r9d
	callq	*%rax
	movq	88(%rsp), %rax
	addq	%rax, 112(%rdi)
	movq	40(%rdi), %rax
	movb	$111, 87(%rsp)
	jmp	.LBB75_16
.LBB75_10:
	movb	$48, 87(%rsp)
	leaq	87(%rsp), %r12
	movq	%r12, 96(%rsp)
	movq	$1, 104(%rsp)
	movq	40(%rdi), %rax
	testq	%rax, %rax
	je	.LBB75_18
	movq	48(%rdi), %rcx
	movq	$0, 88(%rsp)
	movq	%rsi, 48(%rsp)
	leaq	88(%rsp), %r13
	movq	%r13, 40(%rsp)
	movq	$0, 32(%rsp)
	leaq	96(%rsp), %r8
	movl	$4, %edx
	xorl	%r9d, %r9d
	callq	*%rax
	movq	88(%rsp), %rax
	addq	%rax, 112(%rdi)
	movq	40(%rdi), %rax
	movb	$98, 87(%rsp)
	jmp	.LBB75_16
.LBB75_14:
	movb	$48, 87(%rsp)
	leaq	87(%rsp), %r12
	movq	%r12, 96(%rsp)
	movq	$1, 104(%rsp)
	movq	40(%rdi), %rax
	testq	%rax, %rax
	je	.LBB75_18
	movq	48(%rdi), %rcx
	movq	$0, 88(%rsp)
	movq	%rsi, 48(%rsp)
	leaq	88(%rsp), %r13
	movq	%r13, 40(%rsp)
	movq	$0, 32(%rsp)
	leaq	96(%rsp), %r8
	movl	$4, %edx
	xorl	%r9d, %r9d
	callq	*%rax
	movq	88(%rsp), %rax
	addq	%rax, 112(%rdi)
	movq	40(%rdi), %rax
	movb	$120, 87(%rsp)
.LBB75_16:
	movq	%r12, 96(%rsp)
	movq	$1, 104(%rsp)
	testq	%rax, %rax
	je	.LBB75_18
	movq	48(%rdi), %rcx
	movq	$0, 88(%rsp)
	movq	%rsi, 48(%rsp)
	movq	%r13, 40(%rsp)
	movq	$0, 32(%rsp)
	leaq	96(%rsp), %r8
	movl	$4, %edx
	xorl	%r9d, %r9d
	callq	*%rax
	movq	88(%rsp), %rax
	addq	%rax, 112(%rdi)
.LBB75_18:
	movl	$2, %eax
	xorl	%ecx, %ecx
.LBB75_19:
	cmpb	$0, 6(%rdi)
	je	.LBB75_28
	movq	24(%rdi), %rdx
	orq	%r14, %rdx
	jne	.LBB75_28
	movzbl	3(%rdi), %ebp
	movb	$0, 3(%rdi)
	movq	16(%rdi), %r14
	testq	%r14, %r14
	jle	.LBB75_26
	cmpb	$0, 2(%rdi)
	sete	%r15b
	shlb	$4, %r15b
	orb	$32, %r15b
	leaq	87(%rsp), %r12
	leaq	88(%rsp), %r13
	leaq	96(%rsp), %rbx
	jmp	.LBB75_23
	.p2align	4, 0x90
.LBB75_25:
	decq	%r14
	je	.LBB75_26
.LBB75_23:
	movb	%r15b, 87(%rsp)
	movq	%r12, 96(%rsp)
	movq	$1, 104(%rsp)
	movq	40(%rdi), %rax
	testq	%rax, %rax
	je	.LBB75_25
	movq	48(%rdi), %rcx
	movq	$0, 88(%rsp)
	movq	%rsi, 48(%rsp)
	movq	%r13, 40(%rsp)
	movq	$0, 32(%rsp)
	movl	$4, %edx
	movq	%rbx, %r8
	xorl	%r9d, %r9d
	callq	*%rax
	movq	88(%rsp), %rax
	addq	%rax, 112(%rdi)
	jmp	.LBB75_25
.LBB75_28:
	leaq	-2(%rbx), %rdx
	shldq	$63, %rdx, %rdx
	cmpq	$7, %rdx
	ja	.LBB75_35
	movl	$185, %r8d
	btq	%rdx, %r8
	jae	.LBB75_35
	movq	536(%rsp), %rdx
	xorl	%r8d, %r8d
	cmpb	$0, 4(%rdi)
	je	.LBB75_32
	cmpb	$0, 3(%rdi)
	movzbl	%cl, %ecx
	cmovel	%ecx, %r8d
.LBB75_32:
	leal	2(%r8), %ecx
	cmpb	$0, 1(%rdi)
	movzbl	%r8b, %r8d
	movzbl	%cl, %ecx
	cmovel	%r8d, %ecx
	leaq	(%rsp,%rax), %r8
	addq	$160, %r8
	movl	$256, %r9d
	subq	%rax, %r9
	movq	%r8, 128(%rsp)
	movq	%r9, 136(%rsp)
	xorps	%xmm0, %xmm0
	movaps	%xmm0, 112(%rsp)
	movq	%rsi, 64(%rsp)
	movb	%cl, 56(%rsp)
	movq	%rdx, 48(%rsp)
	movq	%r15, 40(%rsp)
	movb	%bpl, 32(%rsp)
	leaq	112(%rsp), %rcx
	leaq	128(%rsp), %rdx
	movq	%r14, %r8
	movq	%rbx, %r9
	callq	strconv.append_bits
	movaps	112(%rsp), %xmm0
	movups	%xmm0, 144(%rsp)
	movzbl	3(%rdi), %ebx
	movb	$0, 3(%rdi)
	leaq	144(%rsp), %rdx
	movq	%rdi, %rcx
	movq	%rsi, %r8
	callq	fmt._pad
	movb	%bl, 3(%rdi)
	jmp	.LBB75_27
.LBB75_26:
	movb	%bpl, 3(%rdi)
.LBB75_27:
	addq	$424, %rsp
	popq	%rbx
	popq	%rbp
	popq	%rdi
	popq	%rsi
	popq	%r12
	popq	%r13
	popq	%r14
	popq	%r15
	retq
.LBB75_35:
	movq	32(%rsi), %rax
	testq	%rax, %rax
	leaq	runtime.default_assertion_failure_proc(%rip), %r10
	cmovneq	%rax, %r10
	leaq	.Lggv$1bd(%rip), %rcx
	leaq	.Lggv$1bb(%rip), %rdx
	leaq	.Lggv$1b5(%rip), %r8
	movq	%rsi, %r9
	callq	*%r10
.LBB75_33:
	movq	32(%rsi), %rax
	testq	%rax, %rax
	leaq	runtime.default_assertion_failure_proc(%rip), %r10
	cmovneq	%rax, %r10
	leaq	.Lggv$1bd(%rip), %rcx
	leaq	.Lggv$30(%rip), %rdx
	leaq	.Lggv$2f(%rip), %r8
	movq	%rsi, %r9
	callq	*%r10
.LBB75_34:
	movq	32(%rsi), %rax
	testq	%rax, %rax
	leaq	runtime.default_assertion_failure_proc(%rip), %r10
	cmovneq	%rax, %r10
	leaq	.Lggv$1bd(%rip), %rcx
	leaq	.Lggv$1b9(%rip), %rdx
	leaq	.Lggv$1b3(%rip), %r8
	movq	%rsi, %r9
	callq	*%r10
	int3
	.section	.rdata,"dr"
	.p2align	2, 0x0
.LJTI75_0:
	.long	.LBB75_10-.LJTI75_0
	.long	.LBB75_19-.LJTI75_0
	.long	.LBB75_19-.LJTI75_0
	.long	.LBB75_12-.LJTI75_0
	.long	.LBB75_19-.LJTI75_0
	.long	.LBB75_12-.LJTI75_0
	.long	.LBB75_19-.LJTI75_0
	.long	.LBB75_14-.LJTI75_0
	.text
	.seh_endproc

	.def	fmt._fmt_int_128;
	.scl	3;
	.type	32;
	.endef
	.p2align	4, 0x90
fmt._fmt_int_128:
.seh_proc fmt._fmt_int_128
	pushq	%r15
	.seh_pushreg %r15
	pushq	%r14
	.seh_pushreg %r14
	pushq	%r13
	.seh_pushreg %r13
	pushq	%r12
	.seh_pushreg %r12
	pushq	%rsi
	.seh_pushreg %rsi
	pushq	%rdi
	.seh_pushreg %rdi
	pushq	%rbp
	.seh_pushreg %rbp
	pushq	%rbx
	.seh_pushreg %rbx
	subq	$568, %rsp
	.seh_stackalloc 568
	.seh_endprologue
	movl	%r9d, %r12d
	movq	%r8, %rbx
	movq	%rdx, %r14
	movq	%rcx, %rdi
	movq	680(%rsp), %r13
	cmpb	$0, 5(%rcx)
	jne	.LBB76_2
	cmpb	$0, 6(%rdi)
	je	.LBB76_3
.LBB76_2:
	movq	16(%rdi), %rax
	movq	24(%rdi), %rcx
	addq	%rcx, %rax
	addq	$3, %rax
	cmpq	$257, %rax
	jge	.LBB76_77
.LBB76_3:
	pxor	%xmm0, %xmm0
	movdqa	%xmm0, 544(%rsp)
	movdqa	%xmm0, 528(%rsp)
	movdqa	%xmm0, 512(%rsp)
	movdqa	%xmm0, 496(%rsp)
	movdqa	%xmm0, 480(%rsp)
	movdqa	%xmm0, 464(%rsp)
	movdqa	%xmm0, 448(%rsp)
	movdqa	%xmm0, 432(%rsp)
	movdqa	%xmm0, 416(%rsp)
	movdqa	%xmm0, 400(%rsp)
	movdqa	%xmm0, 384(%rsp)
	movdqa	%xmm0, 368(%rsp)
	movdqa	%xmm0, 352(%rsp)
	movdqa	%xmm0, 336(%rsp)
	movdqa	%xmm0, 320(%rsp)
	movdqa	%xmm0, 304(%rsp)
	xorl	%r8d, %r8d
	cmpb	$0, 4(%rdi)
	movb	$1, %al
	je	.LBB76_16
	testb	%r12b, %r12b
	jne	.LBB76_16
	leaq	-2(%rbx), %rcx
	shldq	$63, %rcx, %rcx
	xorl	%r8d, %r8d
	cmpq	$7, %rcx
	ja	.LBB76_16
	leaq	.LJTI76_0(%rip), %rdx
	movslq	(%rdx,%rcx,4), %rcx
	addq	%rdx, %rcx
	jmpq	*%rcx
.LBB76_9:
	movb	$48, 71(%rsp)
	leaq	71(%rsp), %rsi
	movq	%rsi, 96(%rsp)
	movq	$1, 104(%rsp)
	movq	40(%rdi), %rax
	testq	%rax, %rax
	je	.LBB76_15
	movq	48(%rdi), %rcx
	movq	$0, 72(%rsp)
	movq	%r13, 48(%rsp)
	leaq	72(%rsp), %r15
	movq	%r15, 40(%rsp)
	movq	$0, 32(%rsp)
	leaq	96(%rsp), %r8
	movl	$4, %edx
	xorl	%r9d, %r9d
	callq	*%rax
	movq	72(%rsp), %rax
	addq	%rax, 112(%rdi)
	movq	40(%rdi), %rax
	movb	$111, 71(%rsp)
	jmp	.LBB76_13
.LBB76_7:
	movb	$48, 71(%rsp)
	leaq	71(%rsp), %rsi
	movq	%rsi, 96(%rsp)
	movq	$1, 104(%rsp)
	movq	40(%rdi), %rax
	testq	%rax, %rax
	je	.LBB76_15
	movq	48(%rdi), %rcx
	movq	$0, 72(%rsp)
	movq	%r13, 48(%rsp)
	leaq	72(%rsp), %r15
	movq	%r15, 40(%rsp)
	movq	$0, 32(%rsp)
	leaq	96(%rsp), %r8
	movl	$4, %edx
	xorl	%r9d, %r9d
	callq	*%rax
	movq	72(%rsp), %rax
	addq	%rax, 112(%rdi)
	movq	40(%rdi), %rax
	movb	$98, 71(%rsp)
	jmp	.LBB76_13
.LBB76_11:
	movb	$48, 71(%rsp)
	leaq	71(%rsp), %rsi
	movq	%rsi, 96(%rsp)
	movq	$1, 104(%rsp)
	movq	40(%rdi), %rax
	testq	%rax, %rax
	je	.LBB76_15
	movq	48(%rdi), %rcx
	movq	$0, 72(%rsp)
	movq	%r13, 48(%rsp)
	leaq	72(%rsp), %r15
	movq	%r15, 40(%rsp)
	movq	$0, 32(%rsp)
	leaq	96(%rsp), %r8
	movl	$4, %edx
	xorl	%r9d, %r9d
	callq	*%rax
	movq	72(%rsp), %rax
	addq	%rax, 112(%rdi)
	movq	40(%rdi), %rax
	movb	$120, 71(%rsp)
.LBB76_13:
	movq	%rsi, 96(%rsp)
	movq	$1, 104(%rsp)
	testq	%rax, %rax
	je	.LBB76_15
	movq	48(%rdi), %rcx
	movq	$0, 72(%rsp)
	movq	%r13, 48(%rsp)
	movq	%r15, 40(%rsp)
	movq	$0, 32(%rsp)
	leaq	96(%rsp), %r8
	movl	$4, %edx
	xorl	%r9d, %r9d
	callq	*%rax
	movq	72(%rsp), %rax
	addq	%rax, 112(%rdi)
.LBB76_15:
	movl	$2, %r8d
	xorl	%eax, %eax
.LBB76_16:
	cmpb	$0, 6(%rdi)
	je	.LBB76_26
	cmpq	$0, 24(%rdi)
	jne	.LBB76_26
	movq	(%r14), %rcx
	orq	8(%r14), %rcx
	je	.LBB76_19
.LBB76_26:
	leaq	-2(%rbx), %rdx
	shldq	$63, %rdx, %rdx
	cmpq	$7, %rdx
	ja	.LBB76_78
	movl	$185, %ecx
	btq	%rdx, %rcx
	jae	.LBB76_78
	movzbl	4(%rdi), %r9d
	xorl	%ecx, %ecx
	movb	%r9b, 87(%rsp)
	testb	%r9b, %r9b
	je	.LBB76_30
	cmpb	$0, 3(%rdi)
	movzbl	%al, %eax
	cmovel	%eax, %ecx
.LBB76_30:
	leal	2(%rcx), %eax
	cmpb	$0, 1(%rdi)
	movzbl	%cl, %ecx
	movzbl	%al, %esi
	cmovel	%ecx, %esi
	pxor	%xmm0, %xmm0
	movdqu	%xmm0, 220(%rsp)
	movdqa	%xmm0, 208(%rsp)
	movdqa	%xmm0, 192(%rsp)
	movdqa	%xmm0, 176(%rsp)
	movdqa	%xmm0, 160(%rsp)
	movdqa	%xmm0, 144(%rsp)
	movdqa	%xmm0, 128(%rsp)
	movdqa	%xmm0, 112(%rsp)
	movdqa	%xmm0, 96(%rsp)
	movq	(%r14), %r15
	movq	8(%r14), %rax
	testb	%r12b, %r12b
	movq	%rdx, 88(%rsp)
	je	.LBB76_31
	movq	%rax, %rdx
	shrq	$63, %rdx
	movq	%rax, %rcx
	sarq	$63, %rcx
	xorq	%rcx, %rax
	xorq	%rcx, %r15
	subq	%rcx, %r15
	sbbq	%rcx, %rax
	jmp	.LBB76_33
.LBB76_31:
	xorl	%edx, %edx
.LBB76_33:
	movq	672(%rsp), %rbp
	cmpq	%rbx, %r15
	movq	%rax, %rcx
	sbbq	$0, %rcx
	jae	.LBB76_35
	leaq	235(%rsp), %rax
	movq	8(%rbp), %rcx
	movl	$140, %r9d
	movl	$139, %r14d
	jmp	.LBB76_41
.LBB76_35:
	movq	%rdx, 240(%rsp)
	movq	%r8, 248(%rsp)
	movl	$139, %r14d
	leaq	272(%rsp), %r12
	leaq	256(%rsp), %r13
	.p2align	4, 0x90
.LBB76_36:
	movq	%r15, 272(%rsp)
	movq	%rbx, 256(%rsp)
	movq	%rax, 280(%rsp)
	movq	$0, 264(%rsp)
	movq	%r12, %rcx
	movq	%r13, %rdx
	callq	__udivti3
	cmpq	$140, %r14
	jae	.LBB76_79
	movq	%xmm0, %rdx
	movl	%edx, %eax
	imull	%ebx, %eax
	subl	%eax, %r15d
	movq	8(%rbp), %rcx
	cmpq	%rcx, %r15
	jae	.LBB76_80
	pextrq	$1, %xmm0, %rax
	movq	(%rbp), %r8
	movzbl	(%r8,%r15), %r8d
	movb	%r8b, 96(%rsp,%r14)
	decq	%r14
	cmpq	%rbx, %rdx
	movq	%rax, %r8
	sbbq	$0, %r8
	movq	%rdx, %r15
	jae	.LBB76_36
	cmpq	$140, %r14
	jae	.LBB76_81
	leaq	(%rsp,%r14), %rax
	addq	$96, %rax
	leaq	1(%r14), %r9
	movq	%rdx, %r15
	movq	680(%rsp), %r13
	movq	248(%rsp), %r8
	movq	240(%rsp), %rdx
.LBB76_41:
	cmpq	%r15, %rcx
	jbe	.LBB76_82
	movq	(%rbp), %rcx
	movzbl	(%rcx,%r15), %ecx
	movb	%cl, (%rax)
	testb	$1, %sil
	jne	.LBB76_44
	movq	88(%rsp), %r12
	jmp	.LBB76_57
.LBB76_44:
	movq	88(%rsp), %r12
	cmpq	$7, %r12
	ja	.LBB76_57
	leaq	.LJTI76_1(%rip), %rax
	movslq	(%rax,%r12,4), %rcx
	addq	%rax, %rcx
	jmpq	*%rcx
.LBB76_46:
	addq	$-2, %r9
	movb	$98, %al
	cmpq	$140, %r9
	jb	.LBB76_55
	movq	$140, 32(%rsp)
	leaq	.Lggv$a8(%rip), %rcx
	movl	$188, %edx
	movl	$20, %r8d
	callq	"runtime.bounds_check_error.handle_error-0"
.LBB76_19:
	movzbl	3(%rdi), %esi
	movb	$0, 3(%rdi)
	movq	16(%rdi), %r14
	testq	%r14, %r14
	jle	.LBB76_24
	cmpb	$0, 2(%rdi)
	sete	%bpl
	shlb	$4, %bpl
	orb	$32, %bpl
	leaq	71(%rsp), %r15
	leaq	72(%rsp), %r12
	leaq	96(%rsp), %rbx
	jmp	.LBB76_21
	.p2align	4, 0x90
.LBB76_23:
	decq	%r14
	je	.LBB76_24
.LBB76_21:
	movb	%bpl, 71(%rsp)
	movq	%r15, 96(%rsp)
	movq	$1, 104(%rsp)
	movq	40(%rdi), %rax
	testq	%rax, %rax
	je	.LBB76_23
	movq	48(%rdi), %rcx
	movq	$0, 72(%rsp)
	movq	%r13, 48(%rsp)
	movq	%r12, 40(%rsp)
	movq	$0, 32(%rsp)
	movl	$4, %edx
	movq	%rbx, %r8
	xorl	%r9d, %r9d
	callq	*%rax
	movq	72(%rsp), %rax
	addq	%rax, 112(%rdi)
	jmp	.LBB76_23
.LBB76_24:
	movb	%sil, 3(%rdi)
	jmp	.LBB76_25
.LBB76_50:
	addq	$-2, %r9
	movb	$100, %al
	cmpq	$140, %r9
	jb	.LBB76_55
	movq	$140, 32(%rsp)
	leaq	.Lggv$a8(%rip), %rcx
	movl	$190, %edx
	movl	$20, %r8d
	callq	"runtime.bounds_check_error.handle_error-0"
.LBB76_48:
	addq	$-2, %r9
	movb	$111, %al
	cmpq	$140, %r9
	jb	.LBB76_55
	movq	$140, 32(%rsp)
	leaq	.Lggv$a8(%rip), %rcx
	movl	$189, %edx
	movl	$20, %r8d
	callq	"runtime.bounds_check_error.handle_error-0"
.LBB76_52:
	addq	$-2, %r9
	movb	$122, %al
	cmpq	$140, %r9
	jb	.LBB76_55
	movq	$140, 32(%rsp)
	leaq	.Lggv$a8(%rip), %rcx
	movl	$191, %edx
	movl	$20, %r8d
	callq	"runtime.bounds_check_error.handle_error-0"
.LBB76_54:
	addq	$-2, %r9
	movb	$120, %al
	cmpq	$140, %r9
	jae	.LBB76_83
.LBB76_55:
	movb	%al, 96(%rsp,%r9)
	movq	%r9, %r14
	decq	%r14
	cmpq	$140, %r14
	jae	.LBB76_84
	movb	$48, 96(%rsp,%r14)
.LBB76_57:
	testb	%dl, %dl
	je	.LBB76_58
	decq	%r14
	movb	$45, %al
	cmpq	$140, %r14
	jb	.LBB76_64
	movq	$140, 32(%rsp)
	leaq	.Lggv$a8(%rip), %rcx
	movl	$202, %edx
	jmp	.LBB76_63
.LBB76_58:
	testb	$2, %sil
	je	.LBB76_65
	decq	%r14
	movb	$43, %al
	cmpq	$140, %r14
	jae	.LBB76_60
.LBB76_64:
	movb	%al, 96(%rsp,%r14)
.LBB76_65:
	movl	$256, %r15d
	leaq	(%rsp,%r8), %rbx
	addq	$304, %rbx
	subq	%r8, %r15
	movl	$140, %esi
	subq	%r14, %rsi
	cmpq	%rsi, %r15
	movq	%rsi, %r8
	cmovlq	%r15, %r8
	testq	%r8, %r8
	jle	.LBB76_67
	leaq	(%rsp,%r14), %rdx
	addq	$96, %rdx
	movq	%rbx, %rcx
	callq	memcpy
.LBB76_67:
	cmpq	%r15, %rsi
	jg	.LBB76_85
	movq	%rbx, 288(%rsp)
	movq	%rsi, 296(%rsp)
	cmpb	$0, 87(%rsp)
	je	.LBB76_76
	cmpb	$0, 3(%rdi)
	je	.LBB76_76
	cmpq	$0, 32(%rdi)
	jne	.LBB76_76
	cmpq	$7, %r12
	ja	.LBB76_76
	movl	$169, %eax
	btl	%r12d, %eax
	jae	.LBB76_76
	movb	$48, 71(%rsp)
	leaq	71(%rsp), %rsi
	movq	%rsi, 96(%rsp)
	movq	$1, 104(%rsp)
	movq	40(%rdi), %rax
	testq	%rax, %rax
	je	.LBB76_76
	leal	(,%r12,8), %ecx
	movabsq	$8674630395463098978, %r14
	shrq	%cl, %r14
	movq	48(%rdi), %rcx
	movq	$0, 72(%rsp)
	movq	%r13, 48(%rsp)
	leaq	72(%rsp), %rbx
	movq	%rbx, 40(%rsp)
	movq	$0, 32(%rsp)
	leaq	96(%rsp), %r8
	movl	$4, %edx
	xorl	%r9d, %r9d
	callq	*%rax
	movq	72(%rsp), %rax
	addq	%rax, 112(%rdi)
	movq	40(%rdi), %rax
	movb	%r14b, 71(%rsp)
	movq	%rsi, 96(%rsp)
	movq	$1, 104(%rsp)
	testq	%rax, %rax
	je	.LBB76_76
	movq	48(%rdi), %rcx
	movq	$0, 72(%rsp)
	movq	%r13, 48(%rsp)
	movq	%rbx, 40(%rsp)
	movq	$0, 32(%rsp)
	leaq	96(%rsp), %r8
	movl	$4, %edx
	xorl	%r9d, %r9d
	callq	*%rax
	movq	72(%rsp), %rax
	addq	%rax, 112(%rdi)
.LBB76_76:
	movzbl	3(%rdi), %ebx
	movb	$0, 3(%rdi)
	leaq	288(%rsp), %rdx
	movq	%rdi, %rcx
	movq	%r13, %r8
	callq	fmt._pad
	movb	%bl, 3(%rdi)
.LBB76_25:
	addq	$568, %rsp
	popq	%rbx
	popq	%rbp
	popq	%rdi
	popq	%rsi
	popq	%r12
	popq	%r13
	popq	%r14
	popq	%r15
	retq
.LBB76_80:
	movq	%rcx, 32(%rsp)
	leaq	.Lggv$a8(%rip), %rcx
	movl	$181, %edx
	movl	$17, %r8d
	movq	%r15, %r9
	callq	"runtime.bounds_check_error.handle_error-0"
.LBB76_79:
	movq	$140, 32(%rsp)
	leaq	.Lggv$a8(%rip), %rcx
	movl	$181, %edx
	movl	$5, %r8d
	movq	%r14, %r9
	callq	"runtime.bounds_check_error.handle_error-0"
.LBB76_82:
	movq	%rcx, 32(%rsp)
	leaq	.Lggv$a8(%rip), %rcx
	movl	$183, %edx
	movl	$22, %r8d
	movq	%r15, %r9
	callq	"runtime.bounds_check_error.handle_error-0"
.LBB76_85:
	movq	%r15, 40(%rsp)
	movq	%rsi, 32(%rsp)
	leaq	.Lggv$a8(%rip), %rcx
	movl	$209, %edx
	movl	$19, %r8d
	xorl	%r9d, %r9d
	callq	runtime.slice_handle_error
.LBB76_81:
	movq	$140, 32(%rsp)
	leaq	.Lggv$a8(%rip), %rcx
	movl	$183, %edx
	movl	$10, %r8d
	movq	%r14, %r9
	callq	"runtime.bounds_check_error.handle_error-0"
.LBB76_84:
	movq	$140, 32(%rsp)
	leaq	.Lggv$a8(%rip), %rcx
	movl	$196, %edx
	movl	$12, %r8d
	movq	%r14, %r9
	callq	"runtime.bounds_check_error.handle_error-0"
.LBB76_60:
	movq	$140, 32(%rsp)
	leaq	.Lggv$a8(%rip), %rcx
	movl	$204, %edx
.LBB76_63:
	movl	$11, %r8d
	movq	%r14, %r9
	callq	"runtime.bounds_check_error.handle_error-0"
.LBB76_83:
	movq	$140, 32(%rsp)
	leaq	.Lggv$a8(%rip), %rcx
	movl	$192, %edx
	movl	$20, %r8d
	callq	"runtime.bounds_check_error.handle_error-0"
.LBB76_78:
	movq	32(%r13), %rax
	testq	%rax, %rax
	leaq	runtime.default_assertion_failure_proc(%rip), %r10
	cmovneq	%rax, %r10
	leaq	.Lggv$1bd(%rip), %rcx
	leaq	.Lggv$1bb(%rip), %rdx
	leaq	.Lggv$1ba(%rip), %r8
	movq	%r13, %r9
	callq	*%r10
.LBB76_77:
	movq	32(%r13), %rax
	testq	%rax, %rax
	leaq	runtime.default_assertion_failure_proc(%rip), %r10
	cmovneq	%rax, %r10
	leaq	.Lggv$1bd(%rip), %rcx
	leaq	.Lggv$1b9(%rip), %rdx
	leaq	.Lggv$1b8(%rip), %r8
	movq	%r13, %r9
	callq	*%r10
	int3
	.section	.rdata,"dr"
	.p2align	2, 0x0
.LJTI76_0:
	.long	.LBB76_7-.LJTI76_0
	.long	.LBB76_16-.LJTI76_0
	.long	.LBB76_16-.LJTI76_0
	.long	.LBB76_9-.LJTI76_0
	.long	.LBB76_16-.LJTI76_0
	.long	.LBB76_9-.LJTI76_0
	.long	.LBB76_16-.LJTI76_0
	.long	.LBB76_11-.LJTI76_0
.LJTI76_1:
	.long	.LBB76_46-.LJTI76_1
	.long	.LBB76_57-.LJTI76_1
	.long	.LBB76_57-.LJTI76_1
	.long	.LBB76_48-.LJTI76_1
	.long	.LBB76_50-.LJTI76_1
	.long	.LBB76_52-.LJTI76_1
	.long	.LBB76_57-.LJTI76_1
	.long	.LBB76_54-.LJTI76_1
	.text
	.seh_endproc

	.def	reflect.relative_pointer_to_absolute_raw;
	.scl	3;
	.type	32;
	.endef
	.p2align	4, 0x90
reflect.relative_pointer_to_absolute_raw:
	xorl	%eax, %eax
	movabsq	$4683743612465315848, %r8
	cmpq	%r8, %rdx
	jg	.LBB77_4
	movabsq	$-72057594037928059, %r8
	addq	%rdx, %r8
	cmpq	$16, %r8
	ja	.LBB77_2
	leaq	.LJTI77_1(%rip), %rdx
	movslq	(%rdx,%r8,4), %r8
	addq	%rdx, %r8
	jmpq	*%r8
.LBB77_15:
	movzwl	(%rcx), %edx
	movl	%edx, %eax
	rolw	$8, %ax
	movzwl	%ax, %r8d
	jmp	.LBB77_16
.LBB77_4:
	movabsq	$-4683743612465315978, %r8
	addq	%rdx, %r8
	cmpq	$10, %r8
	ja	.LBB77_5
	leaq	.LJTI77_3(%rip), %rdx
	movslq	(%rdx,%r8,4), %r8
	addq	%rdx, %r8
	jmpq	*%r8
.LBB77_21:
	movq	(%rcx), %rdx
	movq	%rdx, %rax
	bswapq	%rax
	addq	%rcx, %rax
	testq	%rdx, %rdx
	cmoveq	%rdx, %rax
.LBB77_22:
	retq
.LBB77_2:
	movabsq	$-72057594037927938, %r8
	addq	%r8, %rdx
	cmpq	$29, %rdx
	ja	.LBB77_22
	leaq	.LJTI77_0(%rip), %r8
	movslq	(%r8,%rdx,4), %rdx
	addq	%r8, %rdx
	jmpq	*%rdx
.LBB77_7:
	movzbl	(%rcx), %eax
	jmp	.LBB77_8
.LBB77_5:
	movabsq	$-4683743612465315849, %r8
	addq	%r8, %rdx
	cmpq	$17, %rdx
	ja	.LBB77_22
	leaq	.LJTI77_2(%rip), %r8
	movslq	(%r8,%rdx,4), %rdx
	addq	%r8, %rdx
	jmpq	*%rdx
.LBB77_13:
	movslq	(%rcx), %rax
	jmp	.LBB77_8
.LBB77_14:
	movq	(%rcx), %rax
	jmp	.LBB77_8
.LBB77_11:
	movl	(%rcx), %eax
	jmp	.LBB77_8
.LBB77_10:
	movzwl	(%rcx), %eax
	jmp	.LBB77_8
.LBB77_12:
	movswq	(%rcx), %rax
	jmp	.LBB77_8
.LBB77_17:
	movl	(%rcx), %edx
	movl	%edx, %r8d
	bswapl	%r8d
	jmp	.LBB77_18
.LBB77_19:
	movzwl	(%rcx), %edx
	movl	%edx, %eax
	rolw	$8, %ax
	movswq	%ax, %r8
.LBB77_16:
	addq	%rcx, %r8
	xorl	%eax, %eax
	testw	%dx, %dx
	cmovneq	%r8, %rax
	retq
.LBB77_20:
	movl	(%rcx), %edx
	movl	%edx, %eax
	bswapl	%eax
	movslq	%eax, %r8
.LBB77_18:
	addq	%rcx, %r8
	xorl	%eax, %eax
	testl	%edx, %edx
	cmovneq	%r8, %rax
	retq
.LBB77_9:
	movsbq	(%rcx), %rax
.LBB77_8:
	addq	%rax, %rcx
	testq	%rax, %rax
	cmoveq	%rax, %rcx
	movq	%rcx, %rax
	retq
	.section	.rdata,"dr"
	.p2align	2, 0x0
.LJTI77_0:
	.long	.LBB77_7-.LJTI77_0
	.long	.LBB77_22-.LJTI77_0
	.long	.LBB77_22-.LJTI77_0
	.long	.LBB77_22-.LJTI77_0
	.long	.LBB77_22-.LJTI77_0
	.long	.LBB77_22-.LJTI77_0
	.long	.LBB77_22-.LJTI77_0
	.long	.LBB77_22-.LJTI77_0
	.long	.LBB77_22-.LJTI77_0
	.long	.LBB77_10-.LJTI77_0
	.long	.LBB77_22-.LJTI77_0
	.long	.LBB77_22-.LJTI77_0
	.long	.LBB77_22-.LJTI77_0
	.long	.LBB77_22-.LJTI77_0
	.long	.LBB77_22-.LJTI77_0
	.long	.LBB77_22-.LJTI77_0
	.long	.LBB77_22-.LJTI77_0
	.long	.LBB77_22-.LJTI77_0
	.long	.LBB77_22-.LJTI77_0
	.long	.LBB77_22-.LJTI77_0
	.long	.LBB77_22-.LJTI77_0
	.long	.LBB77_22-.LJTI77_0
	.long	.LBB77_11-.LJTI77_0
	.long	.LBB77_22-.LJTI77_0
	.long	.LBB77_22-.LJTI77_0
	.long	.LBB77_22-.LJTI77_0
	.long	.LBB77_22-.LJTI77_0
	.long	.LBB77_22-.LJTI77_0
	.long	.LBB77_22-.LJTI77_0
	.long	.LBB77_14-.LJTI77_0
.LJTI77_1:
	.long	.LBB77_15-.LJTI77_1
	.long	.LBB77_22-.LJTI77_1
	.long	.LBB77_22-.LJTI77_1
	.long	.LBB77_10-.LJTI77_1
	.long	.LBB77_14-.LJTI77_1
	.long	.LBB77_22-.LJTI77_1
	.long	.LBB77_22-.LJTI77_1
	.long	.LBB77_22-.LJTI77_1
	.long	.LBB77_22-.LJTI77_1
	.long	.LBB77_22-.LJTI77_1
	.long	.LBB77_22-.LJTI77_1
	.long	.LBB77_22-.LJTI77_1
	.long	.LBB77_21-.LJTI77_1
	.long	.LBB77_11-.LJTI77_1
	.long	.LBB77_22-.LJTI77_1
	.long	.LBB77_22-.LJTI77_1
	.long	.LBB77_17-.LJTI77_1
.LJTI77_2:
	.long	.LBB77_12-.LJTI77_2
	.long	.LBB77_22-.LJTI77_2
	.long	.LBB77_22-.LJTI77_2
	.long	.LBB77_22-.LJTI77_2
	.long	.LBB77_22-.LJTI77_2
	.long	.LBB77_22-.LJTI77_2
	.long	.LBB77_22-.LJTI77_2
	.long	.LBB77_22-.LJTI77_2
	.long	.LBB77_22-.LJTI77_2
	.long	.LBB77_22-.LJTI77_2
	.long	.LBB77_22-.LJTI77_2
	.long	.LBB77_22-.LJTI77_2
	.long	.LBB77_22-.LJTI77_2
	.long	.LBB77_13-.LJTI77_2
	.long	.LBB77_14-.LJTI77_2
	.long	.LBB77_22-.LJTI77_2
	.long	.LBB77_22-.LJTI77_2
	.long	.LBB77_13-.LJTI77_2
.LJTI77_3:
	.long	.LBB77_21-.LJTI77_3
	.long	.LBB77_22-.LJTI77_3
	.long	.LBB77_22-.LJTI77_3
	.long	.LBB77_9-.LJTI77_3
	.long	.LBB77_22-.LJTI77_3
	.long	.LBB77_22-.LJTI77_3
	.long	.LBB77_22-.LJTI77_3
	.long	.LBB77_20-.LJTI77_3
	.long	.LBB77_14-.LJTI77_3
	.long	.LBB77_12-.LJTI77_3
	.long	.LBB77_19-.LJTI77_3

	.def	fmt._fmt_memory;
	.scl	3;
	.type	32;
	.endef
	.globl	__real@3ff0000000000000
	.section	.rdata,"dr",discard,__real@3ff0000000000000
	.p2align	3, 0x0
__real@3ff0000000000000:
	.quad	0x3ff0000000000000
	.globl	__xmm@00000000000000004530000043300000
	.section	.rdata,"dr",discard,__xmm@00000000000000004530000043300000
	.p2align	4, 0x0
__xmm@00000000000000004530000043300000:
	.long	1127219200
	.long	1160773632
	.long	0
	.long	0
	.globl	__xmm@45300000000000004330000000000000
	.section	.rdata,"dr",discard,__xmm@45300000000000004330000000000000
	.p2align	4, 0x0
__xmm@45300000000000004330000000000000:
	.quad	0x4330000000000000
	.quad	0x4530000000000000
	.globl	__xmm@80000000000000008000000000000000
	.section	.rdata,"dr",discard,__xmm@80000000000000008000000000000000
	.p2align	4, 0x0
__xmm@80000000000000008000000000000000:
	.quad	0x8000000000000000
	.quad	0x8000000000000000
	.text
	.p2align	4, 0x90
fmt._fmt_memory:
.seh_proc fmt._fmt_memory
	pushq	%r15
	.seh_pushreg %r15
	pushq	%r14
	.seh_pushreg %r14
	pushq	%r13
	.seh_pushreg %r13
	pushq	%r12
	.seh_pushreg %r12
	pushq	%rsi
	.seh_pushreg %rsi
	pushq	%rdi
	.seh_pushreg %rdi
	pushq	%rbp
	.seh_pushreg %rbp
	pushq	%rbx
	.seh_pushreg %rbx
	subq	$376, %rsp
	.seh_stackalloc 376
	.seh_endprologue
	movq	%rcx, %rdi
	movq	488(%rsp), %r14
	testb	%r8b, %r8b
	je	.LBB78_1
	addq	$-8, %r9
	shldq	$61, %r9, %r9
	cmpq	$7, %r9
	ja	.LBB78_6
	leaq	.LJTI78_0(%rip), %rax
	movslq	(%rax,%r9,4), %rcx
	addq	%rax, %rcx
	jmpq	*%rcx
.LBB78_14:
	movsbq	%dl, %rcx
	shrb	$7, %dl
	movl	%edx, %eax
	movq	%rcx, %rdx
	negq	%rdx
	cmovsq	%rcx, %rdx
	movq	24(%rdi), %rcx
	jmp	.LBB78_15
.LBB78_1:
	xorl	%eax, %eax
.LBB78_8:
	cmpb	$0, 6(%rdi)
	jne	.LBB78_10
	movl	$2, %ecx
	cmpq	$1023, %rdx
	ja	.LBB78_11
.LBB78_10:
	movq	24(%rdi), %rcx
	cmpq	$1024, %rdx
	jb	.LBB78_15
.LBB78_11:
	movl	$1, %r8d
	xorl	%ebx, %ebx
	movl	$3, %r9d
	movl	$2, %r10d
	movl	$1, %r15d
	movq	%rdx, %rsi
	movq	%rdx, %r11
	.p2align	4, 0x90
.LBB78_12:
	shlq	$10, %r8
	addq	$4, %rbx
	cmpq	$1, %r15
	cmoveq	%r9, %r15
	cmoveq	%r10, %rbx
	shrq	$10, %r11
	cmpq	$1048575, %rsi
	movq	%r11, %rsi
	ja	.LBB78_12
	cvtsi2sd	%r8, %xmm0
	jmp	.LBB78_16
.LBB78_15:
	movsd	__real@3ff0000000000000(%rip), %xmm0
	movl	$1, %r15d
	xorl	%ebx, %ebx
.LBB78_16:
	xorl	%r12d, %r12d
	xorl	%ebp, %ebp
	cmpb	$0, 4(%rdi)
	sete	%sil
	movq	%rdx, %xmm1
	punpckldq	__xmm@00000000000000004530000043300000(%rip), %xmm1
	setne	%r13b
	subpd	__xmm@45300000000000004330000000000000(%rip), %xmm1
	movapd	%xmm1, %xmm2
	unpckhpd	%xmm1, %xmm2
	addsd	%xmm1, %xmm2
	divsd	%xmm0, %xmm2
	testb	%al, %al
	je	.LBB78_18
	xorpd	__xmm@80000000000000008000000000000000(%rip), %xmm2
.LBB78_18:
	xorpd	%xmm0, %xmm0
	movapd	%xmm0, 352(%rsp)
	movapd	%xmm0, 336(%rsp)
	movapd	%xmm0, 320(%rsp)
	movapd	%xmm0, 304(%rsp)
	movapd	%xmm0, 288(%rsp)
	movapd	%xmm0, 272(%rsp)
	movapd	%xmm0, 256(%rsp)
	movapd	%xmm0, 240(%rsp)
	movapd	%xmm0, 224(%rsp)
	movapd	%xmm0, 208(%rsp)
	movapd	%xmm0, 192(%rsp)
	movapd	%xmm0, 176(%rsp)
	movapd	%xmm0, 160(%rsp)
	movapd	%xmm0, 144(%rsp)
	movapd	%xmm0, 128(%rsp)
	movapd	%xmm0, 112(%rsp)
	leaq	112(%rsp), %rax
	movq	%rax, 96(%rsp)
	movq	$256, 104(%rsp)
	movapd	%xmm0, 80(%rsp)
	movq	%r14, 48(%rsp)
	movq	%rcx, 32(%rsp)
	movq	$64, 40(%rsp)
	leaq	80(%rsp), %rcx
	leaq	96(%rsp), %rdx
	movb	$102, %r9b
	callq	strconv.append_float
	movq	88(%rsp), %r14
	cmpq	$257, %r14
	jae	.LBB78_33
	movb	%r13b, %bpl
	movb	%sil, %r12b
	addq	%rbp, %r15
	addq	%r12, %rbx
	movq	480(%rsp), %rax
	leaq	(%rbx,%r15), %rcx
	movq	8(%rax), %rdx
	testq	%rbx, %rbx
	js	.LBB78_34
	cmpq	%rdx, %rbx
	jg	.LBB78_34
	cmpq	%rcx, %rbx
	jg	.LBB78_34
	cmpq	%rdx, %rcx
	jg	.LBB78_34
	movl	$256, %r8d
	subq	%r14, %r8
	cmpq	%r15, %r8
	cmovgeq	%r15, %r8
	testq	%r8, %r8
	jle	.LBB78_25
	leaq	(%rsp,%r14), %rcx
	addq	$112, %rcx
	addq	(%rax), %rbx
	movq	%rbx, %rdx
	callq	memmove
.LBB78_25:
	addq	%r15, %r14
	cmpq	$257, %r14
	jae	.LBB78_35
	leaq	112(%rsp), %rax
	movq	%rax, 64(%rsp)
	movq	%r14, 72(%rsp)
	cmpb	$0, 1(%rdi)
	jne	.LBB78_32
	testq	%r14, %r14
	je	.LBB78_36
	cmpb	$43, 112(%rsp)
	jne	.LBB78_32
	cmpq	$1, %r14
	je	.LBB78_37
	cmpb	$73, 113(%rsp)
	je	.LBB78_32
	leaq	113(%rsp), %rax
	decq	%r14
	movq	%rax, 64(%rsp)
	movq	%r14, 72(%rsp)
.LBB78_32:
	leaq	64(%rsp), %rdx
	movq	%rdi, %rcx
	movq	488(%rsp), %r8
	callq	fmt._pad
	nop
	addq	$376, %rsp
	popq	%rbx
	popq	%rbp
	popq	%rdi
	popq	%rsi
	popq	%r12
	popq	%r13
	popq	%r14
	popq	%r15
	retq
.LBB78_5:
	movq	%rdx, %rax
	shrq	$63, %rax
	movq	%rdx, %rcx
	negq	%rcx
	cmovnsq	%rcx, %rdx
	jmp	.LBB78_8
.LBB78_7:
	movzwl	%dx, %eax
	shrl	$15, %eax
	movswq	%dx, %rcx
	movq	%rcx, %rdx
	negq	%rdx
	cmovsq	%rcx, %rdx
	jmp	.LBB78_8
.LBB78_4:
	movl	%edx, %eax
	shrl	$31, %eax
	movl	%edx, %ecx
	negl	%ecx
	cmovnsl	%ecx, %edx
	jmp	.LBB78_8
.LBB78_33:
	movq	$256, 40(%rsp)
	movq	$256, 32(%rsp)
	leaq	.Lggv$27d(%rip), %rcx
	movl	$1241, %edx
	movl	$10, %r8d
	movq	%r14, %r9
	callq	runtime.slice_handle_error
.LBB78_34:
	movq	%rdx, 40(%rsp)
	movq	%rcx, 32(%rsp)
	leaq	.Lggv$27d(%rip), %rcx
	movl	$1241, %edx
	movl	$28, %r8d
	movq	%rbx, %r9
	callq	runtime.slice_handle_error
.LBB78_35:
	movq	%r14, 32(%rsp)
	movq	$256, 40(%rsp)
	leaq	.Lggv$27d(%rip), %rcx
	movl	$1242, %edx
	movl	$18, %r8d
	xorl	%r9d, %r9d
	callq	runtime.slice_handle_error
.LBB78_36:
	movq	$0, 32(%rsp)
	leaq	.Lggv$27d(%rip), %rcx
	movl	$1246, %edx
	movl	$10, %r8d
	xorl	%r9d, %r9d
	callq	"runtime.bounds_check_error.handle_error-0"
.LBB78_37:
	movq	$1, 32(%rsp)
	leaq	.Lggv$27d(%rip), %rcx
	movl	$1, %r9d
	movl	$1246, %edx
	movl	$27, %r8d
	callq	"runtime.bounds_check_error.handle_error-0"
.LBB78_6:
	movq	32(%r14), %rax
	testq	%rax, %rax
	leaq	runtime.default_assertion_failure_proc(%rip), %r10
	cmovneq	%rax, %r10
	leaq	.Lggv$1bd(%rip), %rcx
	leaq	.Lggv$30(%rip), %rdx
	leaq	.Lggv$2f(%rip), %r8
	movq	%r14, %r9
	callq	*%r10
	int3
	.section	.rdata,"dr"
	.p2align	2, 0x0
.LJTI78_0:
	.long	.LBB78_14-.LJTI78_0
	.long	.LBB78_7-.LJTI78_0
	.long	.LBB78_6-.LJTI78_0
	.long	.LBB78_4-.LJTI78_0
	.long	.LBB78_6-.LJTI78_0
	.long	.LBB78_6-.LJTI78_0
	.long	.LBB78_6-.LJTI78_0
	.long	.LBB78_5-.LJTI78_0
	.text
	.seh_endproc

	.def	fmt.fmt_rune;
	.scl	3;
	.type	32;
	.endef
	.p2align	4, 0x90
fmt.fmt_rune:
.seh_proc fmt.fmt_rune
	pushq	%rsi
	.seh_pushreg %rsi
	subq	$64, %rsp
	.seh_stackalloc 64
	.seh_endprologue
	leal	-99(%r8), %eax
	cmpl	$20, %eax
	ja	.LBB79_4
	movl	$557057, %r10d
	btl	%eax, %r10d
	jae	.LBB79_2
	leaq	40(%rcx), %rax
	addq	$112, %rcx
	movq	%r9, 32(%rsp)
	leaq	56(%rsp), %r9
	movq	%rcx, %r8
	movq	%rax, %rcx
	callq	io.write_rune
	jmp	.LBB79_5
.LBB79_2:
	movl	$1064960, %r10d
	btl	%eax, %r10d
	jae	.LBB79_4
	leaq	40(%rcx), %rax
	movq	%rcx, %rsi
	movq	%rax, %rcx
	movq	%r9, %r8
	callq	io.write_quoted_rune
	addq	%rax, 112(%rsi)
	jmp	.LBB79_5
.LBB79_4:
	movslq	%edx, %rdx
	movq	%r9, 40(%rsp)
	movl	%r8d, 32(%rsp)
	movl	$32, %r9d
	xorl	%r8d, %r8d
	callq	fmt.fmt_int
.LBB79_5:
	nop
	addq	$64, %rsp
	popq	%rsi
	retq
	.seh_endproc

	.def	fmt.fmt_int;
	.scl	3;
	.type	32;
	.endef
	.p2align	4, 0x90
fmt.fmt_int:
.seh_proc fmt.fmt_int
	pushq	%r14
	.seh_pushreg %r14
	pushq	%rsi
	.seh_pushreg %rsi
	pushq	%rdi
	.seh_pushreg %rdi
	pushq	%rbx
	.seh_pushreg %rbx
	subq	$72, %rsp
	.seh_stackalloc 72
	.seh_endprologue
	movq	%r9, %rsi
	movl	%r8d, %r9d
	movq	152(%rsp), %r8
	movl	144(%rsp), %eax
	leal	-77(%rax), %r10d
	cmpl	$45, %r10d
	ja	.LBB80_24
	leaq	.LJTI80_0(%rip), %r11
	movslq	(%r11,%r10,4), %r10
	addq	%r11, %r10
	jmpq	*%r10
.LBB80_4:
	movq	%r8, 48(%rsp)
	leaq	fmt.__DIGITS_LOWER(%rip), %rax
	movq	%rax, 40(%rsp)
	movq	%rsi, 32(%rsp)
	movl	$10, %r8d
	callq	fmt._fmt_int
	jmp	.LBB80_26
.LBB80_10:
	cmpl	$114, %eax
	je	.LBB80_13
	cmpl	$113, %eax
	je	.LBB80_25
	cmpl	$99, %eax
	jne	.LBB80_14
.LBB80_13:
	leaq	40(%rcx), %rax
	addq	$112, %rcx
	movq	%r8, 32(%rsp)
	leaq	64(%rsp), %r9
	movq	%rcx, %r8
	movq	%rax, %rcx
	callq	io.write_rune
	jmp	.LBB80_26
.LBB80_5:
	movq	%r8, 48(%rsp)
	leaq	fmt.__DIGITS_LOWER(%rip), %rax
	movq	%rax, 40(%rsp)
	movq	%rsi, 32(%rsp)
	movl	$12, %r8d
	callq	fmt._fmt_int
	jmp	.LBB80_26
.LBB80_23:
	movq	%r8, 40(%rsp)
	leaq	fmt.__MEMORY_UPPER(%rip), %rax
	jmp	.LBB80_22
.LBB80_2:
	movq	%r8, 48(%rsp)
	leaq	fmt.__DIGITS_LOWER(%rip), %rax
	movq	%rax, 40(%rsp)
	movq	%rsi, 32(%rsp)
	movl	$2, %r8d
	callq	fmt._fmt_int
	jmp	.LBB80_26
.LBB80_9:
	movq	%r8, 48(%rsp)
	leaq	fmt.__DIGITS_UPPER(%rip), %rax
	jmp	.LBB80_7
.LBB80_15:
	cmpl	$1114112, %edx
	jb	.LBB80_18
	movl	$85, %edx
	jmp	.LBB80_17
.LBB80_6:
	movq	%r8, 48(%rsp)
	leaq	fmt.__DIGITS_LOWER(%rip), %rax
.LBB80_7:
	movq	%rax, 40(%rsp)
	movq	%rsi, 32(%rsp)
	movl	$16, %r8d
	callq	fmt._fmt_int
	jmp	.LBB80_26
.LBB80_21:
	movq	%r8, 40(%rsp)
	leaq	fmt.__MEMORY_LOWER(%rip), %rax
.LBB80_22:
	movq	%rax, 32(%rsp)
	movl	%r9d, %r8d
	movq	%rsi, %r9
	callq	fmt._fmt_memory
	jmp	.LBB80_26
.LBB80_3:
	movq	%r8, 48(%rsp)
	leaq	fmt.__DIGITS_LOWER(%rip), %rax
	movq	%rax, 40(%rsp)
	movq	%rsi, 32(%rsp)
	movl	$8, %r8d
	callq	fmt._fmt_int
	jmp	.LBB80_26
.LBB80_24:
	movl	%eax, %edx
.LBB80_17:
	addq	$72, %rsp
	popq	%rbx
	popq	%rdi
	popq	%rsi
	popq	%r14
	jmp	fmt.fmt_bad_verb
.LBB80_18:
	movq	40(%rcx), %r10
	testq	%r10, %r10
	je	.LBB80_20
	movq	48(%rcx), %rax
	movq	$0, 64(%rsp)
	movq	%r8, 48(%rsp)
	leaq	64(%rsp), %r9
	movq	%r9, 40(%rsp)
	movq	$0, 32(%rsp)
	leaq	.Lggv$1c6(%rip), %r9
	movq	%rdx, %rdi
	movl	$4, %edx
	movq	%rcx, %rbx
	movq	%rax, %rcx
	movq	%r8, %r14
	movq	%r9, %r8
	xorl	%r9d, %r9d
	callq	*%r10
	movq	%r14, %r8
	movq	%rdi, %rdx
	movq	%rbx, %rcx
	movq	64(%rsp), %rax
	addq	%rax, 112(%rbx)
.LBB80_20:
	movq	%r8, 48(%rsp)
	leaq	fmt.__DIGITS_UPPER(%rip), %rax
	movq	%rax, 40(%rsp)
	movq	%rsi, 32(%rsp)
	movl	$16, %r8d
	xorl	%r9d, %r9d
	callq	fmt._fmt_int
	jmp	.LBB80_26
.LBB80_25:
	leaq	40(%rcx), %rax
	movq	%rcx, %rsi
	movq	%rax, %rcx
	callq	io.write_quoted_rune
	addq	%rax, 112(%rsi)
	jmp	.LBB80_26
.LBB80_14:
	movslq	%edx, %rdx
	movq	%r8, 40(%rsp)
	movl	%eax, 32(%rsp)
	movl	$32, %r9d
	xorl	%r8d, %r8d
	callq	fmt.fmt_int
.LBB80_26:
	nop
	addq	$72, %rsp
	popq	%rbx
	popq	%rdi
	popq	%rsi
	popq	%r14
	retq
	.section	.rdata,"dr"
	.p2align	2, 0x0
.LJTI80_0:
	.long	.LBB80_23-.LJTI80_0
	.long	.LBB80_24-.LJTI80_0
	.long	.LBB80_24-.LJTI80_0
	.long	.LBB80_24-.LJTI80_0
	.long	.LBB80_24-.LJTI80_0
	.long	.LBB80_24-.LJTI80_0
	.long	.LBB80_24-.LJTI80_0
	.long	.LBB80_24-.LJTI80_0
	.long	.LBB80_15-.LJTI80_0
	.long	.LBB80_24-.LJTI80_0
	.long	.LBB80_24-.LJTI80_0
	.long	.LBB80_9-.LJTI80_0
	.long	.LBB80_24-.LJTI80_0
	.long	.LBB80_24-.LJTI80_0
	.long	.LBB80_24-.LJTI80_0
	.long	.LBB80_24-.LJTI80_0
	.long	.LBB80_24-.LJTI80_0
	.long	.LBB80_24-.LJTI80_0
	.long	.LBB80_24-.LJTI80_0
	.long	.LBB80_24-.LJTI80_0
	.long	.LBB80_24-.LJTI80_0
	.long	.LBB80_2-.LJTI80_0
	.long	.LBB80_10-.LJTI80_0
	.long	.LBB80_4-.LJTI80_0
	.long	.LBB80_24-.LJTI80_0
	.long	.LBB80_24-.LJTI80_0
	.long	.LBB80_24-.LJTI80_0
	.long	.LBB80_24-.LJTI80_0
	.long	.LBB80_4-.LJTI80_0
	.long	.LBB80_24-.LJTI80_0
	.long	.LBB80_24-.LJTI80_0
	.long	.LBB80_24-.LJTI80_0
	.long	.LBB80_21-.LJTI80_0
	.long	.LBB80_24-.LJTI80_0
	.long	.LBB80_3-.LJTI80_0
	.long	.LBB80_24-.LJTI80_0
	.long	.LBB80_24-.LJTI80_0
	.long	.LBB80_10-.LJTI80_0
	.long	.LBB80_24-.LJTI80_0
	.long	.LBB80_24-.LJTI80_0
	.long	.LBB80_24-.LJTI80_0
	.long	.LBB80_4-.LJTI80_0
	.long	.LBB80_4-.LJTI80_0
	.long	.LBB80_6-.LJTI80_0
	.long	.LBB80_24-.LJTI80_0
	.long	.LBB80_5-.LJTI80_0
	.text
	.seh_endproc

	.def	strconv.append_float;
	.scl	3;
	.type	32;
	.endef
	.p2align	4, 0x90
strconv.append_float:
.seh_proc strconv.append_float
	pushq	%r15
	.seh_pushreg %r15
	pushq	%r14
	.seh_pushreg %r14
	pushq	%r13
	.seh_pushreg %r13
	pushq	%r12
	.seh_pushreg %r12
	pushq	%rsi
	.seh_pushreg %rsi
	pushq	%rdi
	.seh_pushreg %rdi
	pushq	%rbp
	.seh_pushreg %rbp
	pushq	%rbx
	.seh_pushreg %rbx
	subq	$1368, %rsp
	.seh_stackalloc 1368
	.seh_endprologue
	movl	%r9d, %ebx
	movq	%rdx, %rdi
	movq	%rcx, %rsi
	movq	1480(%rsp), %rax
	cmpq	$64, %rax
	je	.LBB81_4
	cmpq	$32, %rax
	jne	.LBB81_2
	cvtsd2ss	%xmm2, %xmm0
	movd	%xmm0, %r8d
	leaq	strconv._f32_info(%rip), %r13
	jmp	.LBB81_7
.LBB81_4:
	movq	%xmm2, %r8
	leaq	strconv._f64_info(%rip), %r13
	jmp	.LBB81_7
.LBB81_2:
	cmpq	$16, %rax
	jne	.LBB81_5
	movdqa	%xmm2, %xmm0
	callq	__truncdfhf2
	pextrw	$0, %xmm0, %eax
	movzwl	%ax, %r8d
	leaq	strconv._f16_info(%rip), %r13
.LBB81_7:
	movq	(%r13), %rax
	movq	8(%r13), %rdx
	leaq	(%rax,%rdx), %rcx
	cmpq	$64, %rcx
	setb	%r9b
	movq	%r8, %r10
	shrq	%cl, %r10
	testq	%r10, %r10
	setne	%bpl
	movq	%r8, %r15
	movl	%eax, %ecx
	shrq	%cl, %r15
	andb	%r9b, %bpl
	movq	$-1, %r9
	movq	$-1, %r10
	movl	%edx, %ecx
	shlq	%cl, %r10
	cmpq	$64, %rdx
	notq	%r10
	cmovaeq	%r9, %r10
	movl	$1, %r12d
	movl	%eax, %ecx
	shlq	%cl, %r12
	xorl	%ecx, %ecx
	cmpq	$64, %rax
	cmovaeq	%rcx, %r15
	cmovaeq	%rcx, %r12
	andq	%r10, %r15
	leaq	-1(%r12), %rax
	andq	%r8, %rax
	cmpq	%r10, %r15
	jne	.LBB81_8
	xorl	%edx, %edx
	cmpq	$1, %rax
	movl	$0, %ebx
	adcq	$3, %rbx
	movq	8(%rdi), %rcx
	cmpq	%rbx, %rcx
	cmovlq	%rcx, %rbx
	testq	%rbx, %rbx
	cmovleq	%rdx, %rbx
	testq	%rcx, %rcx
	jle	.LBB81_13
	leaq	.Lcsbs$e7(%rip), %rcx
	leaq	.Lcsbs$e8(%rip), %r8
	testb	%bpl, %bpl
	cmovneq	%rcx, %r8
	testq	%rax, %rax
	leaq	.Lcsbs$e6(%rip), %rdx
	cmoveq	%r8, %rdx
	movq	(%rdi), %rcx
	movq	%rbx, %r8
	callq	memcpy
	movq	8(%rdi), %rcx
.LBB81_13:
	cmpq	%rcx, %rbx
	jle	.LBB81_59
	movq	%rcx, 40(%rsp)
	movq	%rbx, 32(%rsp)
	leaq	.Lggv$257(%rip), %rcx
	movl	$78, %edx
	movl	$13, %r8d
	xorl	%r9d, %r9d
	callq	runtime.slice_handle_error
.LBB81_8:
	movq	%rdi, 72(%rsp)
	testq	%r15, %r15
	cmoveq	%r15, %r12
	orq	%rax, %r12
	cmpq	$1, %r15
	adcq	$0, %r15
	addq	16(%r13), %r15
	leaq	136(%rsp), %r14
	movl	$408, %r8d
	movq	%r14, %rcx
	xorl	%edx, %edx
	callq	memset
	movq	%r14, %rcx
	movq	%r12, %rdx
	callq	strconv_decimal.assign
	movq	%r15, %rdx
	subq	(%r13), %rdx
	movq	%r14, %rcx
	callq	strconv_decimal.shift
	xorps	%xmm0, %xmm0
	movaps	%xmm0, 96(%rsp)
	movaps	%xmm0, 80(%rsp)
	movq	$0, 112(%rsp)
	cmpq	$0, 1472(%rsp)
	movb	%bl, 71(%rsp)
	js	.LBB81_9
	movzbl	%bl, %eax
	addl	$-69, %eax
	movabsq	$4294967297, %rcx
	btq	%rax, %rcx
	movq	1472(%rsp), %r12
	jb	.LBB81_63
	movabsq	$8589934594, %rcx
	btq	%rax, %rcx
	jae	.LBB81_55
	movq	528(%rsp), %rdx
	addq	%r12, %rdx
	movq	%r12, %rbx
	jmp	.LBB81_56
.LBB81_9:
	movq	%rsi, 128(%rsp)
	testq	%r12, %r12
	je	.LBB81_10
	movq	16(%r13), %rsi
	incq	%rsi
	cmpq	%r15, %rsi
	jge	.LBB81_17
	movq	520(%rsp), %rbx
	movq	528(%rsp), %rax
	subq	%rbx, %rax
	imulq	$332, %rax, %rax
	movq	%r15, %rcx
	subq	(%r13), %rcx
	imulq	$100, %rcx, %rcx
	cmpq	%rcx, %rax
	jge	.LBB81_49
.LBB81_17:
	leaq	544(%rsp), %r14
	movl	$408, %r8d
	movq	%r14, %rcx
	xorl	%edx, %edx
	callq	memset
	leaq	-1(,%r12,2), %rdi
	movq	%r14, %rcx
	movq	%rdi, %rdx
	callq	strconv_decimal.assign
	movq	(%r13), %rbx
	movq	%rbx, %r13
	notq	%r13
	addq	%r15, %r13
	movq	%r14, %rcx
	movq	%r13, %rdx
	callq	strconv_decimal.shift
	movl	$1, %eax
	movl	%ebx, %ecx
	shlq	%cl, %rax
	cmpq	$64, %rbx
	movl	$0, %ecx
	cmovbq	%rax, %rcx
	cmpq	%r12, %rcx
	setae	%al
	cmpq	%r15, %rsi
	setne	%sil
	andb	%al, %sil
	leaq	-1(%r12), %r15
	testb	%sil, %sil
	cmovneq	%rdi, %r15
	leaq	960(%rsp), %rbx
	movl	$408, %r8d
	movq	%rbx, %rcx
	xorl	%edx, %edx
	callq	memset
	leaq	1(,%r15,2), %rdx
	movq	%rbx, %rcx
	callq	strconv_decimal.assign
	movzbl	%sil, %eax
	subq	%rax, %r13
	movq	%rbx, %rcx
	movq	%r13, %rdx
	callq	strconv_decimal.shift
	movq	520(%rsp), %rbx
	testq	%rbx, %rbx
	jle	.LBB81_49
	movq	1344(%rsp), %rax
	movq	928(%rsp), %rcx
	xorl	%r9d, %r9d
	jmp	.LBB81_19
.LBB81_27:
	testb	%r8b, %r8b
	jne	.LBB81_28
.LBB81_47:
	movq	%rsi, %r9
	cmpq	%rbx, %rsi
	je	.LBB81_49
.LBB81_19:
	cmpq	%rax, %r9
	jge	.LBB81_22
	cmpq	$384, %r9
	jae	.LBB81_60
	movzbl	960(%rsp,%r9), %r11d
	jmp	.LBB81_23
	.p2align	4, 0x90
.LBB81_22:
	movb	$48, %r11b
	cmpq	$384, %r9
	jae	.LBB81_61
.LBB81_23:
	movb	$48, %dl
	cmpq	%rcx, %r9
	jge	.LBB81_25
	movzbl	544(%rsp,%r9), %edx
.LBB81_25:
	movzbl	136(%rsp,%r9), %r10d
	cmpb	%r10b, %r11b
	jne	.LBB81_33
	movl	%r12d, %r8d
	andl	$1, %r8d
	leaq	1(%r9), %rsi
	movq	%rsi, %r15
	xorq	%rax, %r15
	orq	%r8, %r15
	sete	%r8b
	cmpb	%dl, %r11b
	je	.LBB81_27
	jmp	.LBB81_34
	.p2align	4, 0x90
.LBB81_33:
	movb	$1, %r8b
	cmpb	%dl, %r10b
	je	.LBB81_28
.LBB81_34:
	movb	$1, %r11b
	testb	$1, %r12b
	je	.LBB81_37
	incb	%r10b
	cmpb	%dl, %r10b
	jb	.LBB81_37
	leaq	1(%r9), %rdx
	cmpq	%rcx, %rdx
	setl	%r11b
.LBB81_37:
	movl	%r8d, %edx
	andb	%r11b, %dl
	cmpb	$1, %dl
	je	.LBB81_38
	testb	%r8b, %r8b
	jne	.LBB81_28
	leaq	1(%r9), %rsi
	testb	%r11b, %r11b
	je	.LBB81_47
	cmpq	%rsi, %rbx
	jbe	.LBB81_49
	addq	$2, %r9
	movq	%r9, %rbx
.LBB81_43:
	cmpq	$1, %rbx
	je	.LBB81_46
	movzbl	134(%rsp,%rbx), %eax
	decq	%rbx
	cmpb	$56, %al
	ja	.LBB81_43
	incb	%al
	movb	%al, 135(%rsp,%rbx)
	movq	%rbx, 520(%rsp)
	jmp	.LBB81_49
.LBB81_63:
	leaq	1(%r12), %rdx
	movq	%r12, %rbx
	jmp	.LBB81_56
.LBB81_55:
	cmpq	$1, %r12
	movq	%r12, %rdx
	adcq	$0, %rdx
	movq	%rdx, %rbx
.LBB81_56:
	leaq	136(%rsp), %r14
	movq	%r14, %rcx
	callq	strconv_decimal.round
	movq	%r14, 80(%rsp)
	movq	$384, 88(%rsp)
	movups	520(%rsp), %xmm0
	movaps	%xmm0, 96(%rsp)
	movq	$0, 112(%rsp)
.LBB81_57:
	movq	72(%rsp), %rdx
.LBB81_58:
	xorps	%xmm0, %xmm0
	movaps	%xmm0, 544(%rsp)
	movzbl	71(%rsp), %eax
	movb	%al, 48(%rsp)
	movq	%rbx, 40(%rsp)
	leaq	80(%rsp), %rax
	movq	%rax, 32(%rsp)
	shrq	$63, %r12
	leaq	544(%rsp), %rdi
	movq	%rdi, %rcx
	movl	%r12d, %r8d
	movl	%ebp, %r9d
	callq	strconv.format_digits
	movq	552(%rsp), %rbx
.LBB81_59:
	movq	(%rdi), %rax
	movq	%rax, (%rsi)
	movq	%rbx, 8(%rsi)
	movq	%rsi, %rax
	addq	$1368, %rsp
	popq	%rbx
	popq	%rbp
	popq	%rdi
	popq	%rsi
	popq	%r12
	popq	%r13
	popq	%r14
	popq	%r15
	retq
.LBB81_10:
	movq	$0, 520(%rsp)
	xorl	%ebx, %ebx
.LBB81_49:
	movq	528(%rsp), %rax
	leaq	136(%rsp), %rcx
	movq	%rcx, 80(%rsp)
	movq	$384, 88(%rsp)
	movq	%rbx, 96(%rsp)
	movq	%rax, 104(%rsp)
	movq	$0, 112(%rsp)
	movzbl	71(%rsp), %ecx
	addl	$-69, %ecx
	movabsq	$4294967297, %rdx
	btq	%rcx, %rdx
	movq	128(%rsp), %rsi
	movq	1472(%rsp), %r12
	jb	.LBB81_62
	movabsq	$8589934594, %rdx
	btq	%rcx, %rdx
	movq	72(%rsp), %rdx
	jae	.LBB81_58
	subq	%rax, %rbx
	xorl	%eax, %eax
	testq	%rbx, %rbx
	cmovleq	%rax, %rbx
	jmp	.LBB81_58
.LBB81_62:
	decq	%rbx
	jmp	.LBB81_57
.LBB81_28:
	leaq	1(%r9), %rax
	cmpq	%rax, %rbx
	jbe	.LBB81_49
	movq	%rax, 520(%rsp)
.LBB81_30:
	cmpb	$48, 136(%rsp,%r9)
	jne	.LBB81_48
	movq	%r9, 520(%rsp)
	leaq	-1(%r9), %rbx
	incq	%r9
	cmpq	$1, %r9
	movq	%rbx, %r9
	ja	.LBB81_30
	movq	$0, 528(%rsp)
	incq	%rbx
	jmp	.LBB81_49
.LBB81_38:
	incq	%r9
	leaq	136(%rsp), %rcx
	movq	%r9, %rdx
	callq	strconv_decimal.round
	movq	520(%rsp), %rbx
	jmp	.LBB81_49
.LBB81_48:
	incq	%r9
	movq	%r9, %rbx
	jmp	.LBB81_49
.LBB81_46:
	movb	$49, 136(%rsp)
	movq	$1, 520(%rsp)
	incq	528(%rsp)
	movl	$1, %ebx
	jmp	.LBB81_49
.LBB81_61:
	movq	$384, 32(%rsp)
	leaq	.Lggv$257(%rip), %rcx
	movl	$307, %edx
	movl	$17, %r8d
	callq	"runtime.bounds_check_error.handle_error-0"
.LBB81_60:
	movq	$384, 32(%rsp)
	leaq	.Lggv$257(%rip), %rcx
	movl	$305, %edx
	movl	$21, %r8d
	callq	"runtime.bounds_check_error.handle_error-0"
.LBB81_5:
	movq	1488(%rsp), %r9
	movq	32(%r9), %rax
	testq	%rax, %rax
	leaq	runtime.default_assertion_failure_proc(%rip), %r10
	cmovneq	%rax, %r10
	leaq	.Lggv$1bd(%rip), %rcx
	leaq	.Lggv$3c(%rip), %rdx
	leaq	.Lggv$3b(%rip), %r8
	callq	*%r10
	int3
	.seh_endproc

	.def	fmt.fmt_int_128;
	.scl	3;
	.type	32;
	.endef
	.p2align	4, 0x90
fmt.fmt_int_128:
.seh_proc fmt.fmt_int_128
	pushq	%rsi
	.seh_pushreg %rsi
	pushq	%rdi
	.seh_pushreg %rdi
	pushq	%rbx
	.seh_pushreg %rbx
	subq	$64, %rsp
	.seh_stackalloc 64
	.seh_endprologue
	movl	%r8d, %eax
	movq	128(%rsp), %r8
	leal	-85(%r9), %r10d
	cmpl	$37, %r10d
	ja	.LBB82_18
	leaq	.LJTI82_0(%rip), %r11
	movslq	(%r11,%r10,4), %r10
	addq	%r11, %r10
	jmpq	*%r10
.LBB82_2:
	movq	%r8, 40(%rsp)
	leaq	fmt.__DIGITS_LOWER(%rip), %r8
	movq	%r8, 32(%rsp)
	movl	$10, %r8d
	jmp	.LBB82_15
.LBB82_3:
	movl	(%rdx), %edx
	cmpl	$114, %r9d
	je	.LBB82_6
	cmpl	$113, %r9d
	je	.LBB82_20
	cmpl	$99, %r9d
	jne	.LBB82_21
.LBB82_6:
	leaq	40(%rcx), %rax
	addq	$112, %rcx
	movq	%r8, 32(%rsp)
	leaq	56(%rsp), %r9
	movq	%rcx, %r8
	movq	%rax, %rcx
	callq	io.write_rune
	jmp	.LBB82_17
.LBB82_7:
	movq	%r8, 40(%rsp)
	leaq	fmt.__DIGITS_LOWER(%rip), %r8
	jmp	.LBB82_14
.LBB82_8:
	movq	%r8, 40(%rsp)
	leaq	fmt.__DIGITS_LOWER(%rip), %r8
	movq	%r8, 32(%rsp)
	movl	$12, %r8d
	jmp	.LBB82_15
.LBB82_9:
	movq	%r8, 40(%rsp)
	leaq	fmt.__DIGITS_LOWER(%rip), %r8
	movq	%r8, 32(%rsp)
	movl	$8, %r8d
	jmp	.LBB82_15
.LBB82_10:
	movq	%r8, 40(%rsp)
	leaq	fmt.__DIGITS_LOWER(%rip), %r8
	movq	%r8, 32(%rsp)
	movl	$2, %r8d
	jmp	.LBB82_15
.LBB82_11:
	cmpl	$1114112, (%rdx)
	jb	.LBB82_22
	movl	$85, %edx
	jmp	.LBB82_19
.LBB82_13:
	movq	%r8, 40(%rsp)
	leaq	fmt.__DIGITS_UPPER(%rip), %r8
.LBB82_14:
	movq	%r8, 32(%rsp)
	movl	$16, %r8d
.LBB82_15:
	movl	%eax, %r9d
.LBB82_16:
	callq	fmt._fmt_int_128
.LBB82_17:
	nop
	addq	$64, %rsp
	popq	%rbx
	popq	%rdi
	popq	%rsi
	retq
.LBB82_18:
	movl	%r9d, %edx
.LBB82_19:
	addq	$64, %rsp
	popq	%rbx
	popq	%rdi
	popq	%rsi
	jmp	fmt.fmt_bad_verb
.LBB82_20:
	leaq	40(%rcx), %rax
	movq	%rcx, %rsi
	movq	%rax, %rcx
	callq	io.write_quoted_rune
	addq	%rax, 112(%rsi)
	jmp	.LBB82_17
.LBB82_21:
	movslq	%edx, %rdx
	movq	%r8, 40(%rsp)
	movl	%r9d, 32(%rsp)
	movl	$32, %r9d
	xorl	%r8d, %r8d
	callq	fmt.fmt_int
	jmp	.LBB82_17
.LBB82_22:
	movq	40(%rcx), %r10
	testq	%r10, %r10
	je	.LBB82_24
	movq	48(%rcx), %rax
	movq	$0, 56(%rsp)
	movq	%r8, 48(%rsp)
	leaq	56(%rsp), %r9
	movq	%r9, 40(%rsp)
	movq	$0, 32(%rsp)
	leaq	.Lggv$1c6(%rip), %r9
	movq	%rdx, %rsi
	movl	$4, %edx
	movq	%rcx, %rdi
	movq	%rax, %rcx
	movq	%r8, %rbx
	movq	%r9, %r8
	xorl	%r9d, %r9d
	callq	*%r10
	movq	%rbx, %r8
	movq	%rsi, %rdx
	movq	%rdi, %rcx
	movq	56(%rsp), %rax
	addq	%rax, 112(%rdi)
.LBB82_24:
	movq	%r8, 40(%rsp)
	leaq	fmt.__DIGITS_UPPER(%rip), %rax
	movq	%rax, 32(%rsp)
	movl	$16, %r8d
	xorl	%r9d, %r9d
	jmp	.LBB82_16
	.section	.rdata,"dr"
	.p2align	2, 0x0
.LJTI82_0:
	.long	.LBB82_11-.LJTI82_0
	.long	.LBB82_18-.LJTI82_0
	.long	.LBB82_18-.LJTI82_0
	.long	.LBB82_13-.LJTI82_0
	.long	.LBB82_18-.LJTI82_0
	.long	.LBB82_18-.LJTI82_0
	.long	.LBB82_18-.LJTI82_0
	.long	.LBB82_18-.LJTI82_0
	.long	.LBB82_18-.LJTI82_0
	.long	.LBB82_18-.LJTI82_0
	.long	.LBB82_18-.LJTI82_0
	.long	.LBB82_18-.LJTI82_0
	.long	.LBB82_18-.LJTI82_0
	.long	.LBB82_10-.LJTI82_0
	.long	.LBB82_3-.LJTI82_0
	.long	.LBB82_2-.LJTI82_0
	.long	.LBB82_18-.LJTI82_0
	.long	.LBB82_18-.LJTI82_0
	.long	.LBB82_18-.LJTI82_0
	.long	.LBB82_18-.LJTI82_0
	.long	.LBB82_2-.LJTI82_0
	.long	.LBB82_18-.LJTI82_0
	.long	.LBB82_18-.LJTI82_0
	.long	.LBB82_18-.LJTI82_0
	.long	.LBB82_18-.LJTI82_0
	.long	.LBB82_18-.LJTI82_0
	.long	.LBB82_9-.LJTI82_0
	.long	.LBB82_18-.LJTI82_0
	.long	.LBB82_18-.LJTI82_0
	.long	.LBB82_3-.LJTI82_0
	.long	.LBB82_18-.LJTI82_0
	.long	.LBB82_18-.LJTI82_0
	.long	.LBB82_18-.LJTI82_0
	.long	.LBB82_2-.LJTI82_0
	.long	.LBB82_2-.LJTI82_0
	.long	.LBB82_7-.LJTI82_0
	.long	.LBB82_18-.LJTI82_0
	.long	.LBB82_8-.LJTI82_0
	.text
	.seh_endproc

	.def	fmt._pad;
	.scl	3;
	.type	32;
	.endef
	.p2align	4, 0x90
fmt._pad:
.seh_proc fmt._pad
	pushq	%r15
	.seh_pushreg %r15
	pushq	%r14
	.seh_pushreg %r14
	pushq	%r13
	.seh_pushreg %r13
	pushq	%r12
	.seh_pushreg %r12
	pushq	%rsi
	.seh_pushreg %rsi
	pushq	%rdi
	.seh_pushreg %rdi
	pushq	%rbp
	.seh_pushreg %rbp
	pushq	%rbx
	.seh_pushreg %rbx
	subq	$120, %rsp
	.seh_stackalloc 120
	.seh_endprologue
	movq	%r8, %rdi
	movq	%rdx, %r8
	movq	%rcx, %rsi
	cmpb	$0, 5(%rcx)
	je	.LBB83_1
	movq	16(%rsi), %r15
	movq	8(%r8), %rcx
	testq	%rcx, %rcx
	movq	%r8, 96(%rsp)
	jle	.LBB83_6
	movq	(%r8), %r8
	xorl	%edx, %edx
	leaq	"runtime.string_decode_rune-.accept_sizes-28525"(%rip), %r11
	leaq	utf8.accept_ranges(%rip), %r14
	xorl	%r9d, %r9d
	.p2align	4, 0x90
.LBB83_8:
	cmpq	%rcx, %r9
	jae	.LBB83_57
	movzbl	(%r8,%r9), %r13d
	testb	%r13b, %r13b
	jns	.LBB83_10
	movzbl	(%r13,%r11), %eax
	cmpq	$241, %rax
	je	.LBB83_10
	movl	%eax, %ebp
	andl	$7, %ebp
	leaq	(%r9,%rbp), %r10
	cmpq	%rcx, %r10
	jle	.LBB83_23
	.p2align	4, 0x90
.LBB83_10:
	incq	%r9
	movq	%r9, %r10
.LBB83_11:
	incq	%rdx
	movq	%r10, %r9
	cmpq	%rcx, %r10
	jl	.LBB83_8
	jmp	.LBB83_12
.LBB83_23:
	shrb	$4, %al
	movzbl	%al, %eax
	leaq	-194(%r13), %r12
	cmpq	$51, %r12
	jae	.LBB83_58
	leaq	1(%r9), %r10
	cmpq	%rcx, %r10
	jae	.LBB83_59
	movzbl	(%r8,%r10), %ebx
	movl	$1, %r10d
	cmpb	(%r14,%rax,2), %bl
	jb	.LBB83_36
	cmpb	%bl, 1(%r14,%rax,2)
	jb	.LBB83_36
	movl	$2, %r10d
	cmpq	$30, %r12
	jb	.LBB83_36
	leaq	2(%r9), %rax
	cmpq	%rcx, %rax
	jae	.LBB83_29
	cmpb	$-65, (%r8,%rax)
	movl	$1, %r10d
	jg	.LBB83_36
	andl	$-16, %r13d
	movl	$3, %r10d
	cmpl	$224, %r13d
	je	.LBB83_36
	leaq	3(%r9), %rax
	cmpq	%rcx, %rax
	jae	.LBB83_34
	cmpb	$-64, (%r8,%rax)
	movl	$1, %eax
	cmovgeq	%rax, %rbp
	movq	%rbp, %r10
.LBB83_36:
	addq	%r9, %r10
	jmp	.LBB83_11
.LBB83_1:
	movq	40(%rsi), %rax
	testq	%rax, %rax
	je	.LBB83_20
	movq	48(%rsi), %rcx
	movq	$0, 72(%rsp)
	movq	%rdi, 48(%rsp)
	leaq	72(%rsp), %rdx
	movq	%rdx, 40(%rsp)
	movq	$0, 32(%rsp)
.LBB83_3:
	movl	$4, %edx
	jmp	.LBB83_4
.LBB83_6:
	xorl	%edx, %edx
.LBB83_12:
	subq	%rdx, %r15
	cmpb	$0, (%rsi)
	je	.LBB83_37
	movq	40(%rsi), %rax
	testq	%rax, %rax
	movq	96(%rsp), %r8
	je	.LBB83_15
	movq	48(%rsi), %rcx
	movq	$0, 72(%rsp)
	movq	%rdi, 48(%rsp)
	leaq	72(%rsp), %rdx
	movq	%rdx, 40(%rsp)
	movq	$0, 32(%rsp)
	movl	$4, %edx
	xorl	%r9d, %r9d
	callq	*%rax
	movq	72(%rsp), %rax
	addq	%rax, 112(%rsi)
.LBB83_15:
	testq	%r15, %r15
	jle	.LBB83_20
	cmpb	$0, 2(%rsi)
	sete	%bpl
	shlb	$4, %bpl
	orb	$32, %bpl
	leaq	71(%rsp), %r14
	leaq	88(%rsp), %r12
	leaq	72(%rsp), %rbx
	jmp	.LBB83_17
	.p2align	4, 0x90
.LBB83_19:
	decq	%r15
	je	.LBB83_20
.LBB83_17:
	movb	%bpl, 71(%rsp)
	movq	%r14, 72(%rsp)
	movq	$1, 80(%rsp)
	movq	40(%rsi), %rax
	testq	%rax, %rax
	je	.LBB83_19
	movq	48(%rsi), %rcx
	movq	$0, 88(%rsp)
	movq	%rdi, 48(%rsp)
	movq	%r12, 40(%rsp)
	movq	$0, 32(%rsp)
	movl	$4, %edx
	movq	%rbx, %r8
	xorl	%r9d, %r9d
	callq	*%rax
	movq	88(%rsp), %rax
	addq	%rax, 112(%rsi)
	jmp	.LBB83_19
.LBB83_37:
	movzbl	2(%rsi), %eax
	testq	%rcx, %rcx
	movq	96(%rsp), %rbx
	je	.LBB83_50
	testb	%al, %al
	jne	.LBB83_50
	movq	(%rbx), %rcx
	cmpb	$45, (%rcx)
	jne	.LBB83_50
	movb	$45, 71(%rsp)
	leaq	71(%rsp), %r12
	movq	%r12, 72(%rsp)
	movq	$1, 80(%rsp)
	movq	40(%rsi), %rax
	testq	%rax, %rax
	je	.LBB83_42
	movq	48(%rsi), %rcx
	movq	$0, 88(%rsp)
	movq	%rdi, 48(%rsp)
	leaq	88(%rsp), %rdx
	movq	%rdx, 40(%rsp)
	movq	$0, 32(%rsp)
	leaq	72(%rsp), %r8
	movl	$4, %edx
	xorl	%r9d, %r9d
	callq	*%rax
	movq	88(%rsp), %rax
	addq	%rax, 112(%rsi)
.LBB83_42:
	testq	%r15, %r15
	jle	.LBB83_47
	cmpb	$0, 2(%rsi)
	sete	%bpl
	shlb	$4, %bpl
	orb	$32, %bpl
	leaq	88(%rsp), %r13
	leaq	72(%rsp), %r14
	jmp	.LBB83_44
	.p2align	4, 0x90
.LBB83_46:
	decq	%r15
	je	.LBB83_47
.LBB83_44:
	movb	%bpl, 71(%rsp)
	movq	%r12, 72(%rsp)
	movq	$1, 80(%rsp)
	movq	40(%rsi), %rax
	testq	%rax, %rax
	je	.LBB83_46
	movq	48(%rsi), %rcx
	movq	$0, 88(%rsp)
	movq	%rdi, 48(%rsp)
	movq	%r13, 40(%rsp)
	movq	$0, 32(%rsp)
	movl	$4, %edx
	movq	%r14, %r8
	xorl	%r9d, %r9d
	callq	*%rax
	movq	88(%rsp), %rax
	addq	%rax, 112(%rsi)
	jmp	.LBB83_46
.LBB83_50:
	testq	%r15, %r15
	jle	.LBB83_55
	testb	%al, %al
	sete	%bpl
	shlb	$4, %bpl
	orb	$32, %bpl
	leaq	71(%rsp), %r12
	leaq	88(%rsp), %r13
	leaq	72(%rsp), %r14
	jmp	.LBB83_52
	.p2align	4, 0x90
.LBB83_54:
	decq	%r15
	je	.LBB83_55
.LBB83_52:
	movb	%bpl, 71(%rsp)
	movq	%r12, 72(%rsp)
	movq	$1, 80(%rsp)
	movq	40(%rsi), %rax
	testq	%rax, %rax
	je	.LBB83_54
	movq	48(%rsi), %rcx
	movq	$0, 88(%rsp)
	movq	%rdi, 48(%rsp)
	movq	%r13, 40(%rsp)
	movq	$0, 32(%rsp)
	movl	$4, %edx
	movq	%r14, %r8
	xorl	%r9d, %r9d
	callq	*%rax
	movq	88(%rsp), %rax
	addq	%rax, 112(%rsi)
	jmp	.LBB83_54
.LBB83_55:
	movq	40(%rsi), %rax
	testq	%rax, %rax
	je	.LBB83_20
	movq	48(%rsi), %rcx
	movq	$0, 72(%rsp)
	movq	%rdi, 48(%rsp)
	leaq	72(%rsp), %rdx
